ccopy_reg
_reconstructor
p0
(cdrawing_graph
Graph
p1
c__builtin__
object
p2
Ntp3
Rp4
(dp5
S'nodes'
p6
(dp7
S'0'
p8
g0
(cdrawing_graph
Node
p9
g2
Ntp10
Rp11
(dp12
S'user_id'
p13
S'0000'
p14
sS'node_id'
p15
g8
sS'is_finished'
p16
I01
sS'drawing'
p17
S'data:image/jpeg;base64,/9j/4Qq9RXhpZgAATU0AKgAAAAgADAEAAAMAAAABApIAAAEBAAMAAAABApQAAAECAAMAAAADAAAAngEGAAMAAAABAAIAAAESAAMAAAABAAEAAAEVAAMAAAABAAMAAAEaAAUAAAABAAAApAEbAAUAAAABAAAArAEoAAMAAAABAAIAAAExAAIAAAAiAAAAtAEyAAIAAAAUAAAA1odpAAQAAAABAAAA7AAAASQACAAIAAgACvyAAAAnEAAK/IAAACcQQWRvYmUgUGhvdG9zaG9wIENDIDIwMTcgKFdpbmRvd3MpADIwMTc6MTI6MDYgMTQ6NTE6NTUAAAAABJAAAAcAAAAEMDIyMaABAAMAAAAB//8AAKACAAQAAAABAAACkqADAAQAAAABAAAClAAAAAAAAAAGAQMAAwAAAAEABgAAARoABQAAAAEAAAFyARsABQAAAAEAAAF6ASgAAwAAAAEAAgAAAgEABAAAAAEAAAGCAgIABAAAAAEAAAkzAAAAAAAAAEgAAAABAAAASAAAAAH/2P/tAAxBZG9iZV9DTQAB/+4ADkFkb2JlAGSAAAAAAf/bAIQADAgICAkIDAkJDBELCgsRFQ8MDA8VGBMTFRMTGBEMDAwMDAwRDAwMDAwMDAwMDAwMDAwMDAwMDAwMDAwMDAwMDAENCwsNDg0QDg4QFA4ODhQUDg4ODhQRDAwMDAwREQwMDAwMDBEMDAwMDAwMDAwMDAwMDAwMDAwMDAwMDAwMDAwM/8AAEQgAoACgAwEiAAIRAQMRAf/dAAQACv/EAT8AAAEFAQEBAQEBAAAAAAAAAAMAAQIEBQYHCAkKCwEAAQUBAQEBAQEAAAAAAAAAAQACAwQFBgcICQoLEAABBAEDAgQCBQcGCAUDDDMBAAIRAwQhEjEFQVFhEyJxgTIGFJGhsUIjJBVSwWIzNHKC0UMHJZJT8OHxY3M1FqKygyZEk1RkRcKjdDYX0lXiZfKzhMPTdePzRieUpIW0lcTU5PSltcXV5fVWZnaGlqa2xtbm9jdHV2d3h5ent8fX5/cRAAICAQIEBAMEBQYHBwYFNQEAAhEDITESBEFRYXEiEwUygZEUobFCI8FS0fAzJGLhcoKSQ1MVY3M08SUGFqKygwcmNcLSRJNUoxdkRVU2dGXi8rOEw9N14/NGlKSFtJXE1OT0pbXF1eX1VmZ2hpamtsbW5vYnN0dXZ3eHl6e3x//aAAwDAQACEQMRAD8A9SqqqpqZTSxtdVbQyutgDWta0bWsY1vta1rVNJJJSkkkklKSSSSUpJJJJSkkkklKSSSSUpJJJJSkkkklKSSSSUpJJJJT/9D1VJJJJSkkkklKSSSSUpJJJJSkkkklKSSSSUpJJJJSkkkklKSSSSUpJJJJT//R9VSSSSUpJJJJSklndR6/0rpx25N49TtUz3PP9hqxr/r3WHbaMN58Da9tc/2PdZ/0UlPVJLkG/XnKn3YDSP5Npn8alcxvrv017g3LqtxSfziN7P8AOr9//gSSno0kLGysbLqF2Na26s/nMII+CKkpSSSSSlJJJJKUkkkkpSSSSSlJJJJKf//S9VSSSSUxe9rGl7yGtaJcToAAuN6t9Z8zqVr8To59LFZIty+CfH03O9rGfy1P629VszMv9h4tnp0sb6nULh+az/RrT+r/AEKqimu+6vYAAcfHP5g/Ntt/eyHf+ApKcrpf1SdYPVuBh+pfZuG7+wNmRb/12zHZ/wACt/H+rvT6GgBvxDQ1g+6trf8AqlqJJKaDuidNcINXzk/3qjl/VTFsafs7zW79143NK3UklPAXYHU+i5Qsxy7FuP0S33VWAfm/yv8Ai103QfrFV1RpouaKc2se+qdHD/SVfvNWpk41GVS6jIYLK38tP5R+65cP1jpmT0vNbZU4+ow78a7guA/NfH+E/Ns/z0lPepKh0TqjOp4LMgaWD22t8Hf+ZK+kpSSSSSlJJJJKUkkkkpSSSSSn/9P1VAzspmHh35dn0aK3WGf5IlHWD9d7Cz6t5LRobnV1fJ9jGu/6KSnB+qeE/PyhkZPudc77ZlE9yT+rUn/z4u8XP/U6oDEvuH5zxWPgxoj/AKtdAkpBmZmPhYz8nIdtqrEk8knhrWj85znLl8jrvVc0h1ZOLRZ/M1VkBzh+9ZkOl39jEZ/bR/rZd6uZj4btaamG97eznE+lXu/qs9Za3RcJlVH2qwB2TeJdYeQ382pn7lbP3WpKeddk9cxf0j7cioc7n7ns/t+qFsdI+sJyLm4We1tWTY3dTY3+btH/AAf8pbZE6Hhch1/Abh5mzHGyq0HJoA/wdzP530v3W2e2zYkp7BUOt4Lc3p9jI/SVjfWe8jt/aaj9PyTlYVOQdHWNBcP5Q0d/0lYSU8V9Vss43VXY5MV5I47B2v8A6MZ/4Ou1Xn9g+ydbYW/4K8j5NsYvQElKSSSSUpJJJJSkkkklKSSSSU//1PVVg/Xesv8Aq5e4f4J9Vh+DbGSt5VupYbc7p+Rhu4vrcyT2JHtd/ZckpyPqZaH9Our7suJPwc1kLoFw31Kz3Y2c7Cv9rrR6T2ntbV7f+kxdykp5X620WtzKshgnfUWtju6vdY6v+3W/2f8AFrb6Nn0ZeDUWOG5lbQ8fL6X9VG6hg05+M7Htluocx7fpMe36FjP5TVyGb0jquDaHtY4FhkZFA3NPns/wP8tj/Ykp7M5NAMbwT4DX/qVwnWOqZGb1UWtO+llhpxK2j6UmHf5+z/wdFL83KHp2/acidPRa4MYfi2gOsf8A562eifV+1mSzqHUGtY+obcXFb9GsH893/CpKdjpeM/E6fRj2a2MYN8cbj7n/APSKsWPFdbrDwwFx+QlSWZ9Y8wYnSLzP6S4ejWPFz/b/ANFm96SnisN93Uur0Ne7dZkWGx5j6IL2vd/1C9IXD/U7DNvWLb49mIzbPbeZEf8AStXcJKUkkkkpSSSSSlJJJJKUkkkkp//V9VSSSSU8R9b+lWYGcOs4oim4g3kfmWD6N39V/wCeui6B1yrqmMNxDclgixnn+8FpXU1X1OpuaH1vG1zTqCCuG6p0DqPQcj7b0wusxGmRt1fWP3HD/CVpKe8SXLdJ+uuPc0MzBtfwXhb1XVen2gFtzRPjokptpKu7qGC0S7IrA/rj+9UMv6zdOx2n0917uwaNrZ87LNqSnUssrqrdba4MrYJc5xgADuSuF671ezqOUy2ppdWD6fTqI91j3afaHM/6hR6l1rM6te3GDTkOcZqwaAS2R+fc7/Cbf3rP0K6D6v8A1bdhWftDqLhd1B4hoGrKWn/B1fy/37ElNz6v9JHSunMod7r3/pL3+Lzz/mrTSSSUpJJJJSkkkklKSSSSUpJJJJT/AP/W9VSSSSUpMROh4TpJKcXqX1S6RnuNnpnHuP8AhKvb/nN+isaz6jdRqP6pngt7B4c0/wDQ3Ls0klPFD6ofWF2jsyoDx3P/AIMCtY31FBcHZ+a+zxZSNn/gthts/wCoXVpJKanT+l9P6bWa8KhtId9Jw1c7/jLHbrLP7blbSSSUpJJJJSkkkklKSSSSUpJJJJSkkkklP//X9VSSSSUpJJJJSkkkklKSSSSUpJJJJSkkkklKSSSSUpJJJJSkkkklKSSSSU//0PVUkkklKSSSSUpJJJJSkkkklKSSSSUpJJJJSkkkklKSSSSUpJJJJSkkkklP/9n/7RIwUGhvdG9zaG9wIDMuMAA4QklNBAQAAAAAAAccAgAAAgAAADhCSU0EJQAAAAAAEOjxXPMvwRihontnrcVk1bo4QklNBDoAAAAAAOUAAAAQAAAAAQAAAAAAC3ByaW50T3V0cHV0AAAABQAAAABQc3RTYm9vbAEAAAAASW50ZWVudW0AAAAASW50ZQAAAABDbHJtAAAAD3ByaW50U2l4dGVlbkJpdGJvb2wAAAAAC3ByaW50ZXJOYW1lVEVYVAAAAAEAAAAAAA9wcmludFByb29mU2V0dXBPYmpjAAAADABQAHIAbwBvAGYAIABTAGUAdAB1AHAAAAAAAApwcm9vZlNldHVwAAAAAQAAAABCbHRuZW51bQAAAAxidWlsdGluUHJvb2YAAAAJcHJvb2ZDTVlLADhCSU0EOwAAAAACLQAAABAAAAABAAAAAAAScHJpbnRPdXRwdXRPcHRpb25zAAAAFwAAAABDcHRuYm9vbAAAAAAAQ2xicmJvb2wAAAAAAFJnc01ib29sAAAAAABDcm5DYm9vbAAAAAAAQ250Q2Jvb2wAAAAAAExibHNib29sAAAAAABOZ3R2Ym9vbAAAAAAARW1sRGJvb2wAAAAAAEludHJib29sAAAAAABCY2tnT2JqYwAAAAEAAAAAAABSR0JDAAAAAwAAAABSZCAgZG91YkBv4AAAAAAAAAAAAEdybiBkb3ViQG/gAAAAAAAAAAAAQmwgIGRvdWJAb+AAAAAAAAAAAABCcmRUVW50RiNSbHQAAAAAAAAAAAAAAABCbGQgVW50RiNSbHQAAAAAAAAAAAAAAABSc2x0VW50RiNQeGxAUgAAAAAAAAAAAAp2ZWN0b3JEYXRhYm9vbAEAAAAAUGdQc2VudW0AAAAAUGdQcwAAAABQZ1BDAAAAAExlZnRVbnRGI1JsdAAAAAAAAAAAAAAAAFRvcCBVbnRGI1JsdAAAAAAAAAAAAAAAAFNjbCBVbnRGI1ByY0BZAAAAAAAAAAAAEGNyb3BXaGVuUHJpbnRpbmdib29sAAAAAA5jcm9wUmVjdEJvdHRvbWxvbmcAAAAAAAAADGNyb3BSZWN0TGVmdGxvbmcAAAAAAAAADWNyb3BSZWN0UmlnaHRsb25nAAAAAAAAAAtjcm9wUmVjdFRvcGxvbmcAAAAAADhCSU0D7QAAAAAAEABIAAAAAQACAEgAAAABAAI4QklNBCYAAAAAAA4AAAAAAAAAAAAAP4AAADhCSU0EDQAAAAAABAAAAB44QklNBBkAAAAAAAQAAAAeOEJJTQPzAAAAAAAJAAAAAAAAAAABADhCSU0nEAAAAAAACgABAAAAAAAAAAI4QklNA/QAAAAAABIANQAAAAEALQAAAAYAAAAAAAE4QklNA/cAAAAAABwAAP////////////////////////////8D6AAAOEJJTQQAAAAAAAACAAM4QklNBAIAAAAAAAgAAAAAAAAAADhCSU0EMAAAAAAABAEBAQE4QklNBC0AAAAAAAYAAQAAAA04QklNBAgAAAAAABAAAAABAAACQAAAAkAAAAAAOEJJTQQeAAAAAAAEAAAAADhCSU0EGgAAAAADfQAAAAYAAAAAAAAAAAAAApQAAAKSAAAAJAAxADAAMQAyADkAOQA2AF8ANQA0ADcAOQA1ADQANAA0ADEAOQAzADEAOQAyADUAXwAyADAANAAyADMAOAAzADkAMQA4AF8AbgAAAAEAAAAAAAAAAAAAAAAAAAAAAAAAAQAAAAAAAAAAAAACkgAAApQAAAAAAAAAAAAAAAAAAAAAAQAAAAAAAAAAAAAAAAAAAAAAAAAQAAAAAQAAAAAAAG51bGwAAAACAAAABmJvdW5kc09iamMAAAABAAAAAAAAUmN0MQAAAAQAAAAAVG9wIGxvbmcAAAAAAAAAAExlZnRsb25nAAAAAAAAAABCdG9tbG9uZwAAApQAAAAAUmdodGxvbmcAAAKSAAAABnNsaWNlc1ZsTHMAAAABT2JqYwAAAAEAAAAAAAVzbGljZQAAABIAAAAHc2xpY2VJRGxvbmcAAAAAAAAAB2dyb3VwSURsb25nAAAAAAAAAAZvcmlnaW5lbnVtAAAADEVTbGljZU9yaWdpbgAAAA1hdXRvR2VuZXJhdGVkAAAAAFR5cGVlbnVtAAAACkVTbGljZVR5cGUAAAAASW1nIAAAAAZib3VuZHNPYmpjAAAAAQAAAAAAAFJjdDEAAAAEAAAAAFRvcCBsb25nAAAAAAAAAABMZWZ0bG9uZwAAAAAAAAAAQnRvbWxvbmcAAAKUAAAAAFJnaHRsb25nAAACkgAAAAN1cmxURVhUAAAAAQAAAAAAAG51bGxURVhUAAAAAQAAAAAAAE1zZ2VURVhUAAAAAQAAAAAABmFsdFRhZ1RFWFQAAAABAAAAAAAOY2VsbFRleHRJc0hUTUxib29sAQAAAAhjZWxsVGV4dFRFWFQAAAABAAAAAAAJaG9yekFsaWduZW51bQAAAA9FU2xpY2VIb3J6QWxpZ24AAAAHZGVmYXVsdAAAAAl2ZXJ0QWxpZ25lbnVtAAAAD0VTbGljZVZlcnRBbGlnbgAAAAdkZWZhdWx0AAAAC2JnQ29sb3JUeXBlZW51bQAAABFFU2xpY2VCR0NvbG9yVHlwZQAAAABOb25lAAAACXRvcE91dHNldGxvbmcAAAAAAAAACmxlZnRPdXRzZXRsb25nAAAAAAAAAAxib3R0b21PdXRzZXRsb25nAAAAAAAAAAtyaWdodE91dHNldGxvbmcAAAAAADhCSU0EKAAAAAAADAAAAAI/8AAAAAAAADhCSU0EFAAAAAAABAAAAA04QklNBAwAAAAACU8AAAABAAAAoAAAAKAAAAHgAAEsAAAACTMAGAAB/9j/7QAMQWRvYmVfQ00AAf/uAA5BZG9iZQBkgAAAAAH/2wCEAAwICAgJCAwJCQwRCwoLERUPDAwPFRgTExUTExgRDAwMDAwMEQwMDAwMDAwMDAwMDAwMDAwMDAwMDAwMDAwMDAwBDQsLDQ4NEA4OEBQODg4UFA4ODg4UEQwMDAwMEREMDAwMDAwRDAwMDAwMDAwMDAwMDAwMDAwMDAwMDAwMDAwMDP/AABEIAKAAoAMBIgACEQEDEQH/3QAEAAr/xAE/AAABBQEBAQEBAQAAAAAAAAADAAECBAUGBwgJCgsBAAEFAQEBAQEBAAAAAAAAAAEAAgMEBQYHCAkKCxAAAQQBAwIEAgUHBggFAwwzAQACEQMEIRIxBUFRYRMicYEyBhSRobFCIyQVUsFiMzRygtFDByWSU/Dh8WNzNRaisoMmRJNUZEXCo3Q2F9JV4mXys4TD03Xj80YnlKSFtJXE1OT0pbXF1eX1VmZ2hpamtsbW5vY3R1dnd4eXp7fH1+f3EQACAgECBAQDBAUGBwcGBTUBAAIRAyExEgRBUWFxIhMFMoGRFKGxQiPBUtHwMyRi4XKCkkNTFWNzNPElBhaisoMHJjXC0kSTVKMXZEVVNnRl4vKzhMPTdePzRpSkhbSVxNTk9KW1xdXl9VZmdoaWprbG1ub2JzdHV2d3h5ent8f/2gAMAwEAAhEDEQA/APUqqqqamU0sbXVW0MrrYA1rWtG1rGNb7Wta1TSSSUpJJJJSkkkklKSSSSUpJJJJSkkkklKSSSSUpJJJJSkkkklKSSSSU//Q9VSSSSUpJJJJSkkkklKSSSSUpJJJJSkkkklKSSSSUpJJJJSkkkklKSSSSU//0fVUkkklKSSSSUpJZ3Uev9K6cduTePU7VM9zz/Yasa/691h22jDefA2vbXP9j3Wf9FJT1SS5Bv15yp92A0j+TaZ/GpXMb679Ne4Ny6rcUn84jez/ADq/f/4Ekp6NJCxsrGy6hdjWturP5zCCPgipKUkkkkpSSSSSlJJJJKUkkkkpSSSSSn//0vVUkkklMXvaxpe8hrWiXE6AALjerfWfM6la/E6OfSxWSLcvgnx9Nzvaxn8tT+tvVbMzL/YeLZ6dLG+p1C4fms/0a0/q/wBCqoprvur2AAHHxz+YPzbbf3sh3/gKSnK6X9UnWD1bgYfqX2bhu/sDZkW/9dsx2f8AArfx/q70+hoAb8Q0NYPura3/AKpaiSSmg7onTXCDV85P96o5f1UxbGn7O81u/deNzSt1JJTwF2B1PouULMcuxbj9Et91VgH5v8r/AItdN0H6xVdUaaLminNrHvqnRw/0lX7zVqZONRlUuoyGCyt/LT+UfuuXD9Y6Zk9LzW2VOPqMO/Gu4LgPzXx/hPzbP89JT3qSodE6ozqeCzIGlg9trfB3/mSvpKUkkkkpSSSSSlJJJJKUkkkkp//T9VQM7KZh4d+XZ9Git1hn+SJR1g/Xews+reS0aG51dXyfYxrv+ikpwfqnhPz8oZGT7nXO+2ZRPck/q1J/8+LvFz/1OqAxL7h+c8Vj4MaI/wCrXQJKQZmZj4WM/JyHbaqxJPJJ4a1o/Oc5y5fI671XNIdWTi0WfzNVZAc4fvWZDpd/YxGf20f62XermY+G7Wmphve3s5xPpV7v6rPWWt0XCZVR9qsAdk3iXWHkN/NqZ+5Wz91qSnnXZPXMX9I+3IqHO5+57P7fqhbHSPrCci5uFntbVk2N3U2N/m7R/wAH/KW2ROh4XIdfwG4eZsxxsqtByaAP8Hcz+d9L91tnts2JKewVDreC3N6fYyP0lY31nvI7f2mo/T8k5WFTkHR1jQXD+UNHf9JWElPFfVbLON1V2OTFeSOOwdr/AOjGf+DrtV5/YPsnW2Fv+CvI+TbGL0BJSkkkklKSSSSUpJJJJSkkkklP/9T1VYP13rL/AKuXuH+CfVYfg2xkreVbqWG3O6fkYbuL63Mk9iR7Xf2XJKcj6mWh/Trq+7LiT8HNZC6BcN9Ss92NnOwr/a60ek9p7W1e3/pMXcpKeV+ttFrcyrIYJ31FrY7ur3WOr/t1v9n/ABa2+jZ9GXg1FjhuZW0PHy+l/VRuoYNOfjOx7ZbqHMe36THt+hYz+U1chm9I6rg2h7WOBYZGRQNzT57P8D/LY/2JKezOTQDG8E+A1/6lcJ1jqmRm9VFrTvpZYacSto+lJh3+fs/8HRS/Nyh6dv2nInT0WuDGH4toDrH/AOetnon1ftZks6h1BrWPqG3FxW/RrB/Pd/wqSnY6XjPxOn0Y9mtjGDfHG4+5/wD0irFjxXW6w8MBcfkJUlmfWPMGJ0i8z+kuHo1jxc/2/wDRZvekp4rDfd1Lq9DXu3WZFhseY+iC9r3f9QvSFw/1Owzb1i2+PZiM2z23mRH/AErV3CSlJJJJKUkkkkpSSSSSlJJJJKf/1fVUkkklPEfW/pVmBnDrOKIpuIN5H5lg+jd/Vf8Anrougdcq6pjDcQ3JYIsZ5/vBaV1NV9Tqbmh9bxtc06ggrhuqdA6j0HI+29MLrMRpkbdX1j9xw/wlaSnvEly3Sfrrj3NDMwbX8F4W9V1Xp9oBbc0T46JKbaSru6hgtEuyKwP64/vVDL+s3Tsdp9Pde7sGja2fOyzakp1LLK6q3W2uDK2CXOcYAA7krheu9Xs6jlMtqaXVg+n06iPdY92n2hzP+oUepdazOrXtxg05DnGasGgEtkfn3O/wm396z9Cug+r/ANW3YVn7Q6i4XdQeIaBqylp/wdX8v9+xJTc+r/SR0rpzKHe69/6S9/i88/5q00kklKSSSSUpJJJJSkkkklKSSSSU/wD/1vVUkkklKTEToeE6SSnF6l9UukZ7jZ6Zx7j/AISr2/5zforGs+o3Uaj+qZ4LeweHNP8A0Ny7NJJTxQ+qH1hdo7MqA8dz/wCDArWN9RQXB2fmvs8WUjZ/4LYbbP8AqF1aSSmp0/pfT+m1mvCobSHfScNXO/4yx26yz+25W0kklKSSSSUpJJJJSkkkklKSSSSUpJJJJT//1/VUkkklKSSSSUpJJJJSkkkklKSSSSUpJJJJSkkkklKSSSSUpJJJJSkkkklP/9D1VJJJJSkkkklKSSSSUpJJJJSkkkklKSSSSUpJJJJSkkkklKSSSSUpJJJJT//ZADhCSU0EIQAAAAAAXQAAAAEBAAAADwBBAGQAbwBiAGUAIABQAGgAbwB0AG8AcwBoAG8AcAAAABcAQQBkAG8AYgBlACAAUABoAG8AdABvAHMAaABvAHAAIABDAEMAIAAyADAAMQA3AAAAAQA4QklNBAYAAAAAAAcACAEBAAEBAP/hDc9odHRwOi8vbnMuYWRvYmUuY29tL3hhcC8xLjAvADw/eHBhY2tldCBiZWdpbj0i77u/IiBpZD0iVzVNME1wQ2VoaUh6cmVTek5UY3prYzlkIj8+IDx4OnhtcG1ldGEgeG1sbnM6eD0iYWRvYmU6bnM6bWV0YS8iIHg6eG1wdGs9IkFkb2JlIFhNUCBDb3JlIDUuNi1jMTM4IDc5LjE1OTgyNCwgMjAxNi8wOS8xNC0wMTowOTowMSAgICAgICAgIj4gPHJkZjpSREYgeG1sbnM6cmRmPSJodHRwOi8vd3d3LnczLm9yZy8xOTk5LzAyLzIyLXJkZi1zeW50YXgtbnMjIj4gPHJkZjpEZXNjcmlwdGlvbiByZGY6YWJvdXQ9IiIgeG1sbnM6eG1wTU09Imh0dHA6Ly9ucy5hZG9iZS5jb20veGFwLzEuMC9tbS8iIHhtbG5zOnN0RXZ0PSJodHRwOi8vbnMuYWRvYmUuY29tL3hhcC8xLjAvc1R5cGUvUmVzb3VyY2VFdmVudCMiIHhtbG5zOmRjPSJodHRwOi8vcHVybC5vcmcvZGMvZWxlbWVudHMvMS4xLyIgeG1sbnM6cGhvdG9zaG9wPSJodHRwOi8vbnMuYWRvYmUuY29tL3Bob3Rvc2hvcC8xLjAvIiB4bWxuczp4bXA9Imh0dHA6Ly9ucy5hZG9iZS5jb20veGFwLzEuMC8iIHhtcE1NOkRvY3VtZW50SUQ9ImFkb2JlOmRvY2lkOnBob3Rvc2hvcDozOGU0ODhjYS1kYTg0LTExZTctOGNiZi05YTdmY2Q5Yjg4NjUiIHhtcE1NOkluc3RhbmNlSUQ9InhtcC5paWQ6MjJlMDY4ODUtMzkwOS05ZjRkLWFmYmQtYzYyZTViMjYxMGExIiB4bXBNTTpPcmlnaW5hbERvY3VtZW50SUQ9IjY2MTQ4RjJBRTVFODI4RjlEREM2REZBNDBGMDdBRDgxIiBkYzpmb3JtYXQ9ImltYWdlL2pwZWciIHBob3Rvc2hvcDpDb2xvck1vZGU9IjEiIHBob3Rvc2hvcDpJQ0NQcm9maWxlPSJEb3QgR2FpbiAyMCUiIHhtcDpDcmVhdGVEYXRlPSIyMDE3LTEyLTA2VDAyOjM0OjA3KzAyOjAwIiB4bXA6TW9kaWZ5RGF0ZT0iMjAxNy0xMi0wNlQxNDo1MTo1NSswMjowMCIgeG1wOk1ldGFkYXRhRGF0ZT0iMjAxNy0xMi0wNlQxNDo1MTo1NSswMjowMCI+IDx4bXBNTTpIaXN0b3J5PiA8cmRmOlNlcT4gPHJkZjpsaSBzdEV2dDphY3Rpb249InNhdmVkIiBzdEV2dDppbnN0YW5jZUlEPSJ4bXAuaWlkOmUwZTYyMmFjLTY5NmEtZDQ0Yi1iMGUwLTRhZTUwMzQzNzM0MSIgc3RFdnQ6d2hlbj0iMjAxNy0xMi0wNlQxNDo1MTo1NSswMjowMCIgc3RFdnQ6c29mdHdhcmVBZ2VudD0iQWRvYmUgUGhvdG9zaG9wIENDIDIwMTcgKFdpbmRvd3MpIiBzdEV2dDpjaGFuZ2VkPSIvIi8+IDxyZGY6bGkgc3RFdnQ6YWN0aW9uPSJzYXZlZCIgc3RFdnQ6aW5zdGFuY2VJRD0ieG1wLmlpZDoyMmUwNjg4NS0zOTA5LTlmNGQtYWZiZC1jNjJlNWIyNjEwYTEiIHN0RXZ0OndoZW49IjIwMTctMTItMDZUMTQ6NTE6NTUrMDI6MDAiIHN0RXZ0OnNvZnR3YXJlQWdlbnQ9IkFkb2JlIFBob3Rvc2hvcCBDQyAyMDE3IChXaW5kb3dzKSIgc3RFdnQ6Y2hhbmdlZD0iLyIvPiA8L3JkZjpTZXE+IDwveG1wTU06SGlzdG9yeT4gPC9yZGY6RGVzY3JpcHRpb24+IDwvcmRmOlJERj4gPC94OnhtcG1ldGE+ICAgICAgICAgICAgICAgICAgICAgICAgICAgICAgICAgICAgICAgICAgICAgICAgICAgICAgICAgICAgICAgICAgICAgICAgICAgICAgICAgICAgICAgICAgICAgICAgICAgICAgICAgICAgICAgICAgICAgICAgICAgICAgICAgICAgICAgICAgICAgICAgICAgICAgICAgICAgICAgICAgICAgICAgICAgICAgICAgICAgICAgICAgICAgICAgICAgICAgICAgICAgICAgICAgICAgICAgICAgICAgICAgICAgICAgICAgICAgICAgICAgICAgICAgICAgICAgICAgICAgICAgICAgICAgICAgICAgICAgICAgICAgICAgICAgICAgICAgICAgICAgICAgICAgICAgICAgICAgICAgICAgICAgICAgICAgICAgICAgICAgICAgICAgICAgICAgICAgICAgICAgICAgICAgICAgICAgICAgICAgICAgICAgICAgICAgICAgICAgICAgICAgICAgICAgICAgICAgICAgICAgICAgICAgICAgICAgICAgICAgICAgICAgICAgICAgICAgICAgICAgICAgICAgICAgICAgICAgICAgICAgICAgICAgICAgICAgICAgICAgICAgICAgICAgICAgICAgICAgICAgICAgICAgICAgICAgICAgICAgICAgICAgICAgICAgICAgICAgICAgICAgICAgICAgICAgICAgICAgICAgICAgICAgICAgICAgICAgICAgICAgICAgICAgICAgICAgICAgICAgICAgICAgICAgICAgICAgICAgICAgICAgICAgICAgICAgICAgICAgICAgICAgICAgICAgICAgICAgICAgICAgICAgICAgICAgICAgICAgICAgICAgICAgICAgICAgICAgICAgICAgICAgICAgICAgICAgICAgICAgICAgICAgICAgICAgICAgICAgICAgICAgICAgICAgICAgICAgICAgICAgICAgICAgICAgICAgICAgICAgICAgICAgICAgICAgICAgICAgICAgICAgICAgICAgICAgICAgICAgICAgICAgICAgICAgICAgICAgICAgICAgICAgICAgICAgICAgICAgICAgICAgICAgICAgICAgICAgICAgICAgICAgICAgICAgICAgICAgICAgICAgICAgICAgICAgICAgICAgICAgICAgICAgICAgICAgICAgICAgICAgICAgICAgICAgICAgICAgICAgICAgICAgICAgICAgICAgICAgICAgICAgICAgICAgICAgICAgICAgICAgICAgICAgICAgICAgICAgICAgICAgICAgICAgICAgICAgICAgICAgICAgICAgICAgICAgICAgICAgICAgICAgICAgICAgICAgICAgICAgICAgICAgICAgICAgICAgICAgICAgICAgICAgICAgICAgICAgICAgICAgICAgICAgICAgICAgICAgICAgICAgICAgICAgICAgICAgICAgICAgICAgICAgICAgICAgICAgICAgICAgICAgICAgICAgICAgICAgICAgICAgICAgICAgICAgICAgICAgICAgICAgICAgICAgICAgICAgICAgICAgICAgICAgICAgICAgICAgICAgICAgICAgICAgICAgICAgICAgICAgICAgICAgICAgICAgICAgICAgICAgICAgICAgICAgICAgICAgICAgICAgICAgICAgICAgICAgICAgICAgICAgICAgICAgICAgICAgICAgICAgICAgICAgICAgICAgICAgICAgICAgICAgICAgICAgICAgICAgICAgICAgICAgICAgICAgICAgICAgICAgICAgICAgICAgICAgICAgICAgICAgICAgICAgICAgICAgICAgICAgICAgICAgICAgICAgICAgICAgICAgICAgICAgICAgICAgICAgICAgICAgICAgICAgICAgICAgICAgICAgICAgICAgICAgICAgICAgICAgICAgICAgICAgICAgICAgICAgICAgICAgICAgICAgICAgICAgICAgICAgICAgICAgICAgICAgICAgICAgICAgICAgICAgICAgICAgICAgICAgICAgICAgICAgICAgICAgICAgICAgICAgICAgICAgICAgICAgICAgICAgICAgICAgICAgICAgICAgICAgICAgICAgICAgICAgICAgICAgICAgICAgICAgICAgICAgICAgICAgICAgICAgICAgICAgICAgICAgICAgICAgICAgICAgICAgICAgICAgICAgICAgICAgICAgICAgICAgICAgICAgICAgICAgICAgICAgICAgICAgICAgICAgICAgICAgICAgICAgICAgICAgICAgICAgICAgICAgICAgICAgICAgICAgICAgICAgICAgICAgICAgICAgICAgICAgICAgICAgICAgICAgICAgICAgICAgICAgICAgICAgICAgICAgICAgICAgICAgICAgICAgICAgICAgICAgICAgICAgICAgICAgICAgICAgICAgICAgICAgICAgICAgICAgICAgICAgICAgICAgICAgICAgICAgICAgICAgICAgICAgICAgICAgICAgICAgICAgICAgICAgICAgICAgPD94cGFja2V0IGVuZD0idyI/Pv/iA6BJQ0NfUFJPRklMRQABAQAAA5BBREJFAhAAAHBydHJHUkFZWFlaIAfPAAYAAwAAAAAAAGFjc3BBUFBMAAAAAG5vbmUAAAAAAAAAAAAAAAAAAAABAAD21gABAAAAANMtQURCRQAAAAAAAAAAAAAAAAAAAAAAAAAAAAAAAAAAAAAAAAAAAAAAAAAAAAAAAAAAAAAABWNwcnQAAADAAAAAMmRlc2MAAAD0AAAAZ3d0cHQAAAFcAAAAFGJrcHQAAAFwAAAAFGtUUkMAAAGEAAACDHRleHQAAAAAQ29weXJpZ2h0IDE5OTkgQWRvYmUgU3lzdGVtcyBJbmNvcnBvcmF0ZWQAAABkZXNjAAAAAAAAAA1Eb3QgR2FpbiAyMCUAAAAAAAAAAAAAAAAAAAAAAAAAAAAAAAAAAAAAAAAAAAAAAAAAAAAAAAAAAAAAAAAAAAAAAAAAAAAAAAAAAAAAAAAAAAAAAAAAAAAAAAAAAFhZWiAAAAAAAAD21gABAAAAANMtWFlaIAAAAAAAAAAAAAAAAAAAAABjdXJ2AAAAAAAAAQAAAAAQACAAMABAAFAAYQB/AKAAxQDsARcBRAF1AagB3gIWAlICkALQAxMDWQOhA+wEOQSIBNoFLgWFBd4GOQaWBvYHVwe7CCIIigj0CWEJ0ApBCrQLKQugDBoMlQ0SDZIOEw6WDxwPoxAsELgRRRHUEmUS+BONFCQUvRVXFfQWkhcyF9QYeBkeGcYabxsbG8gcdh0nHdoejh9EH/wgtSFxIi4i7SOtJHAlNCX5JsEniihVKSIp8CrAK5IsZS06LhEu6i/EMKAxfTJcMz00HzUDNek20De5OKQ5kDp+O208Xj1RPkU/O0AzQSxCJkMiRCBFH0YgRyNIJ0ktSjRLPExHTVNOYE9vUH9RkVKlU7pU0VXpVwJYHlk6WlhbeFyZXbxe4GAGYS1iVmOAZKxl2WcIaDhpaWqda9FtB24/b3hwsnHucyt0anWqdux4L3l0erp8AX1KfpV/4YEugnyDzYUehnGHxYkbinKLy40ljoGP3ZE8kpuT/ZVflsOYKJmPmvecYJ3LnzegpaIUo4Wk9qZpp96pVKrLrEStvq85sLayNLO0tTS2t7g6ub+7RbzNvla/4MFswvnEh8YXx6jJO8rOzGPN+s+S0SvSxdRh1f7XnNk82t3cf94j38jhbuMW5L/maegU6cHrb+0f7tDwgvI18+r1oPdX+RD6yvyF/kH////uACFBZG9iZQBkAAAAAAADABADAAECAAAAAAAAAAAAAAAA/9sAQwABAQEBAQEBAQEBAQEBAQEBAQEBAQEBAQEBAQEBAQEBAQEBAQEBAQEBAQEBAgICAgICAgICAgIDAwMDAwMDAwMD/8IACwgClAKSAQERAP/EAJMAAQACAwEBAAMBAAAAAAAAAAAICgYHCQUEAQIDCxAAAQQCAgEDAQkBAQEAAAAABgQFBwgCAwEJUAAgMEBgERITFBUWFwqgECQRAAICAgEDAgQCBwUFBAkDBQECAwQRBQYAIRIxE0EiFAdRYTBQcTJCIxUggVIzJECRYnIWYENjNKChsYKiU3NEJZKTVDU2FycI/9oACAEBAQAAAL/AAAAAAAAAAAAAAAAAAAAAAAAAAAAAAAAAAAAAAAAAAAAAAAAAAAAAAAAAAAAAAAAAAAAAAAAAAAAAAAAAAAAAAAAAAAAAAAAAAAAAAAAAAAAAAAAAAAAAAAAAAAAAAAAAAAAAAAAAAAAAAAAAAAAAAAAAAAAAAAAAAAAAAAAAAAAAAAAAAAAAAAAAAAAAAAAAAAAAAAAAAAAAAAAAAAAAAAAAAAAAAAAAAAAAAAAAAAAAAAAAAAAAAAAAAAAAAAAAAAAAAAAAAAAAAAAAAAAAAAAAAAAAAAAAAAAAAAAAAAAAAAAAAABimgYuxJjTrHzMs3tLCc8tPrAAAAAAAAAAAfJGbldx7gFrr6PW/Pz/AK/D830yU7A9qJ5f1AAAAAAAAAAP1jHws4WxUzrJPxn2eet9Pm4w+fWOBeh1HscdK/qAAAAAAAAABiXHystBTa+ezbk9tvIdrbP/AK4ZquP8X8ExDXEevz3EsxyGAAAAAAAAAGn61lcP0JL9DJTbcnzLzenoj+OC6WgPzBhP5Wj43zRtk9MP2AAAAAAAAA0HUs4SyQ6FS1l72HksADGOffBeLWt4yZxbE7M/2AAAAAAAADT1P3hLPXodvLvfNj8gAGE8K+LuBxh9q2l2Y/YAAAAAAAAxqpzWi6TThmrYwzwAAH45R1tNcxq2dcG6XgAAAAAAAHBOmDOSevQGxv7IAABzArJahjR0CuNSFAAAAAAAAidQs1x2Ak7aP98AAAOKdefTMf7DloX6QAAAAAAA/SphV/7t+5b+26AAAD4avPKiO+1bhXRQAAAAAAAIif58cjJWWWeowB+Imc4I3+ruWdUyc2AI5VEY1xh7s2zv7AAAAAAACtBUK7cSnt1/UAjLWbhTuD58Q8rHJfWBOjn9QFffgboaRFyaYoAAAAAAB43+fRpeZtorqCA5xVKtoMWzXxP65nq3XliLvF9QEWqjcaNaWYbBQAAAAAABDv8Azl+hsqbqmRARDpQbOl550lZP+7GeBfz5JzptV9qv2B+tUrlfGfsBcfAAAAAAAOJVFvrJ2As6gfDTJhl2AjBYa6F/Waor187sn0FcvlGBxUrexdl3eA2oAAAAAAAqv1jeiFmTs8BAmmdLvK7EvRwHk1JNQxr7N2R/yCANT6Lm1bi09wAAAAAAFL7ivOq370CArncU9o9E7G+wgIE0+ZCZVcN2CCN9PSL/AK1sHrIAAAAAAAo2cuZz3SpUAVC4UbI7pdsQGJ0Wt94TbqlEDWFMiJfsWhezoAAAAAACi3zGnrdSksBUO57yRsS9QwGkKO+xc2tczDBgVKWH+YWeO14AAAAAACkTyBnrdUlWBVN5t+Tad6ngYpTw4xyslfbmkqDkVTb/AE3Zar7CgAAAAAAKgNfGZd1SdoHBLiJEvvjZN94HOikh9/79N7kftAqTcZ9Myju8S8AAAAAAAVw6jko7enYgCLdOH4dgdpO5HvYFrTWmtOC/MXD8fvSzxB+tJTnDGvsxdjyQAAAAAABy3oGyvsF2gAP1rJc4NN7VkL0v2z5OqubcE5JcyrEVowDEqKMPNKWMra4AAAAAABrX/Njzmdl5fKgNdVCdY6+03++8sExCWe9+aMhLo+3AIr0SsM1ncD7sgAAAAAACkjxsk5cn6fANP1Yoi678XZ2+P766jbLi1/KgBwJq++X697GYgAAAAAAA4x0bpEdrrdH3gPL5A8gow+P6Gc+/1c7a7MAeVR0jJGDrfde+0AAAAAAAYj/n/QjlrcL6lgDx9FaE8fY8ms/AHH6o3tCH9zzsyAAAAAAADhXSz2b1mt7b3AAABqmj1jsTJ7XlMmAAAAAAABi9IzjxvKw1ZazwAAAeXUm5d5LEW731LAAAAAAAAQaos6GkhY67+Z8AAA82tFws3xzeslWoPyAAAAAAAAcUKaXhSUsJd4d5AAAwustxi33zz6oXRs1AAAAAAAAHw196lflb77bdzZxe+AA/EKqwUONhwPn5dh3UAAAAAAAADyeC9UjTe6ei3Ybp5KzLAB/OKPEDkD+2JQ06o3L9ygAAAAAAAAPh5L1YucWfyKn50PmvKHe+b5B9nxYFoKGfMaEWB4jofVtjq0DlgAAAAAAAAARQrw8II85zuOWUmtjbF+/4MZ13rrU2qcA1nr+cVs3pv+wAAAAAAAAAHh8+eF3HuMHk+xsHJMl/r4nmfB8vy+Z0AsbdmvZAAAAAAAAAADyItc1OVUHY+YF5/wBPue7kEv8Aq52MnB/UAAAAAAAAAAAfFrjUus8N+fIdqSEzsAAAAAAAAAAAAAAAAAAAAAAAAAAAAAAAAAAAAAAAAAAAAAAAAAAAAAAAAAAAAAAAAAAAAAAAAAAAAAAAAAAAAAAAAAAAAAAAAAAAAAAAAAAAAAAAAAAAAAAAAAAAAAAAAAAAAAAAAAAAAAAAAAAAAAAAAAAAAAAAAAAAAAAAAAAAAAAAAAAAAAAAAAAAAAAAAAAAAAAAAAAAAAAAAAAAAAAAAAAAAAAAAAAAAAAAAAAAAAAAAAAAAAAAAAAAAAAAAAAAAAAAAAAAAAAAAAAAAAAAAAAAAAAAAAAAAAAAAAAAAAAAAAAAAAAAAB//2gAIAQEAAQUA/wCzV/OQ8W4LbeRaMYmvZKMMOsx7dmxv9EPc4n1ZrO6l3wy1d3BZqyZ+8wz07BTvd5yzBu7SujzlGt86nyryiXoHJP8AYRcvQtiWQbVggglnfs/aWnVLXaW4b/RRdWYjxRtarFGO3RApItyxhWOEOOQFCCbjkXh7D1mJgeXraE6OeOW50a+EhS5684ouFOEMqoL7zZnHPUA9lFU7BY6N+hTp8/nnhrwk6zYkGJbS9og40bZrvNKEjKsUR8fKWmMRdo42nLY04o0knFfprrDKBFwkqI2ouNdcY3S+soFA9XCiFwnR6UxtF+jPRGzAp4c4heVGt1ine27V4+ZCexokjYj3Vh7MJ6g7KsnZ3Cs7IUS5G5JfOGBuOgrXcDsFGQJBZO+kjS4sQaC08VsoEMCuAu1yDJrkDdY0nPugUrNU+OOEvAk3YoWVY+ZsMGTSu4RVxtBu176sWH38OlUZp18P1eZET+jCsLgq4I4HH2Pe4i0kDKPBGxrNBFFY486iCKSoV2iMsvo25Ux7Ri4DUQhZSPJwbfNSrMDHGqC7fZb+0rT+XiiRXkTi/lRyGR+ayApj6hsZACFul3BpawCpdgpsUAPWsPotYjVWAwrhAztDVh7N6ZOq1u8VR098FlTgZ/TSf1uI+M5cp0ejat9aHEaVbB3cu1lYAMF257FygAcay3RJIueKoXxHpKbsM8NmHl5xnBlillvh2HKiDNydyKRXOOIn34KIrqtg7+mqQm4a4gvr5lOXV8T1NhqJcfkJQwXL087dfYwcJZypucxU9b1zQVKSsVeBvUXRtoSpYDseUwg90ove2ODQnUaFejyszS2zxQM9g99lJKowzf5Ge4OgBc662AaDYzb4pheXrUvVdaRxhCLbxxxjx853HQZJLNc/re3oWxbyQxyrKwHek3Eom3PuuAp2I4IKqMXRbtyLDPDZh5MvKmsLH+yW9m17UrXR8lsprfW/J50vJQ2C+FQqMlk5OkfRuKRmx/Rc8cc8XS6+WCR2h7Gn2LXg1Dkz9qIBr+V8VUnpzjx+onalLIDL5Ps7uUlZ0swyK8zQe1SrfwWLDk7SNOqhdFnKSnUfH2gXafpb5UeZ5nYXkdeRN5NRRE/6DdqUvOFPbHuSLmtc3t04R55G4k8NsGRLemxj0Ru9X4HcydzN35gicRoTTp/mo0FxhkDWL6fslpYmIW95Q544mLHmsTsT1tjc26/7RbozOUaxM4JPH7NmGrX2t211FpiBN7xMslxMNtcLRzXmKCKwcpwlETDCoD9Q5tiF5br91fWwtIz7r5GHGWA/Wz5VtPVmLf11z+nlaKvH3amLVD0FXaltebP9OYgTI246eFxu/wDWrWVujGPPhyyxxxmC8NaYTykHuiak+5d26z27qW/s3spnkJ9ppFr3xle4QNdYlIgeb6vhtDCqCbYtlIC5GHhKk4cWgXXrIvlCi05qYampOo0q0/ju6ewmGt8DEiqVpg0pNAIw0IgFZOc0oEKNrQ/BYy18UVrH7S9qE1TotHY+LDjfqAAYG1rClw24KG1zX5rGaTG/VpJJdFlMJ9ihqMLa2XwCpHS6N+lTp+DsurzqaTMuyyZ3awQt9+iFjHe/BVFZe1S/XnxpE+IRgf7PZxcio7onHqROu0qlJBr6tISxj6EvgvhfUYq0OH0mShZwtBRGNApER2HOHrBri+fyRTjXqSEuCsJcmL03OilozSs46ZaDON1ijMNkgwicooh2IJdiVCuRuSP33FjLGSoNnQQxSOu9JwUgFbHvY3PvUDK+Tac+NveeagOtthilWfSlGbXwGwXDwGpkORBEbQB4v77m2jYKtxLLEokcymUJRqXTIq4g8dUbsZaj5hWR5E1sJK0MHWzNrpi4dYcnflyL1rmTNhI0BmsZ8gkzB7xunCsXDqHChqXQuZ9d1xUj6OYZ4bMPdnhhtwupFWQIXtOGDY655bAaWqkSR/WFh/G92MkcCkIC6XcTHy/DHhb1URxgX2R97m5ImZu7MrOPVgZxE4zVnhWZOgnX0KEwGRrQPtXevaNIRZkLeha0v/pzC4Cep77ddKgQxr5PxjFD7aaIRncnrxJ7nWuV6xSXoLRj39nADxqM3FswxOpN07VDrHrzmtHINMsZDhrxn+g862J9ddmzFUYsuzJcV9OoVgiBPf2Gy1hG8JRtjvlKU4dXYCGDgzPUqn9F4LZgbT7n1iaCdm7IKrL6/wAjwwe6iRlOg/PQi6wLAquGDjnjLj3dio1w6wzKaPhqkmZEPKU0iNX+FP1nFH8mp54z/QSQ5KJdr/q4StAzj+Ay60BzEfq/7+5uTdmt5riyJ2qLgX7lW+moTnszioZ4EgL39iEPt0owCGL3IVUzYj0cM1ZCXKPZZil65f4691umfF7rrPmjnB/sRr4QSCA/e3FPT07cq65+M77V3O6yUP8AHCYLFNOKiTqUI8UVZff2xPih/npmUYIYuSo9mWuoAhoeMPgPGDUVBMjtnDccmyVO71vE/wD4c6bu+T1X/wB01IuHGJZ7w42vdr8/yXrjD9vN+mZTllG/jO+fVljaeMdmOISB/h/vunnOPNbPf2ANnDndMTdPyV4VvSZnnXw2a1yT4JmmNJGDdPh1ljI4ATb+IA3Ism0iohrzwrb7pT2a9MbS4+NzsT2icsXrB0UbFBZ0w87P4f4zv9aeU1moxU8/1uFLMdM90pW4rK3+/tNaNgRa4pZP2aWQAn2LE3ViToiaOPebl7WBismXGkZ6laN3zebSjFJlrI5TaX7M6nen7LuYK5e7tesa5R9F5+9uq/XLjym40uTkmdTPpyZd6KIPGf6GxHZrl+INv6sSZ3nnSZdeb5qc4G9/c9Eu15bWr8yQ12l+5CCHr8nNVAJiNErMXM/u7KpQ1xZBh09OPLRGsTM4LEUbF7Iz+ut6DyGUZgHGNINMPu7a5D3uxkDj6V+cJ0WpG95jhnUFhxSGL8IugLxn+hECyXgESqcGkxTqP0SXqWOcHcK99xIi0zJBalS7w3KVsIpQNBrVSVEagYrBaxyjFcJljEbMW9QnS6nWWY3ZvTtZ0CRenW1T3t9Os+Sg6euymdHA6eXdiWOS+dnNYJjcBAql0X0UqtjXuNfdnnjrw7K3/h2nBCSrMdj+oVHEy0SDND7L4c1/sgn4zuCjT+waXO/5wsePu3DFo6jpV1M0m+/LHHPHtQqQtDX8CJ2c3i9zFX2NV7bJjm36oWvJNkYuwjZMPk5EmVpVup0KB1k9EdggIfSzb2WIFGQw2FUoO2uPUMdDpo4bpWlLqJpkkICj3nrnizBNuSL+Z2FG8NebXHSL9dI/VTH+wjO/GzIBJZSieywSsEiWP3H+VxRSCUtgi6A5KnMRD3ylGg/K4fbOrp5U2WRkwa3DWYBTOE7Xh5a0msenuWQ5cnmmQSRC6ms/ruE8EzJKquNKYMbS3qFkWBXNjbCFMrEtJaak5u+whELDCUd++5Mhoo2gl8d1KzbuTcMEMwyi5zw6f4vyb2nx3cpXniObMV5f+WEtiBfmGyn1hzfjIES/BNkHR/PgXbihsiVvI24tL2VG76QLXvTNkbqsQxFHKHchk6KBPhxuqpQ6yqS7AyJySujoX7qn0fIJCIKx1mHoEH/g7r5ywZg8hw2KG+wy7UwMsBA+11yo3HeIJA/ju56vmUlwTILTmFHpG5rH1l6/LJYApq1Oje+NnwPTI0EbXY3qhAC/OQqS2LjVa9A21Ot2wcIOXptgpChyQRoUJOGSsJYYuVb+rxQozjiJg6MG34H15QDrNeSdVU9z0CteLm/yau3G8hdd0ILJamlub0bS3+OPRFAeB18qzOcXn8TmnCdNABupjQ866rFpCgZ+J5HmIiTk1XItJNTt14Rk47dHW5HmOY9QGvrNsEIrjgB0/F20WjTxjGX5q0mdzZQiBg6JmxWSkfURXHAAjbyHcFVHk7E5GH9gAdJlGDq10psO7aV1fpsZ5rB/qJsmERgiNbbT2WTfJ8fDSYearBmSx0cKE1jdZVkMMEmYDFPIGYo2m4z2SU1VxiZg65yTKgsqXNLvSK3O1JsjyQmKRx/6Z6emsdaezK+u2ZCuLQRc8bphkBvGGqDAtzkQu6waoaoSi7yV4qyM09xrbiupHHJSxP2ZMkh2WHQIfqZ290psY/kVhkNp+kd3hsYG7su7Fv5lmDCK6U3grJNAy1kji8zYfdVlEUcgP2OOOGPkueOOeOxyj7UcNE4Q8UQyaMzpg/8AELzQuFHWqFxdajfFs3MZ7q+iOT8Xjtlv92Xu0iqhQIWysvIyVsYEMvyU8l731x0CJZTKY5j0TikJ8o5tqB4b+wqgSFzTTFDRfDJQ0PyIp4jaYXAKXV5uPm1pIetN+NrHClgLW/5ssscMbE3cimC2W1t8JKsO6CsdbCjkrOm9s0yjK7m8uXXxQI6lszgKBgOukd+WfWJqJGq9XXygdUs9VhMIpIB83wU4BBaTA+yvFtN6BTC9wmp13x9bDQuSjJyJGGn4t27Un1S5c6EooT2e7VS4o9GhAZnzshHGlo0GEqZqNJQePRmq67us09m4hgyCI7r0DeYcm1A8IbeUIYTBqtHRR9EXJXkUALglKWp5zDJqLR31Ftw9jf6j21Kd7xEbrEg/gLXcEHXFqsLFrngikmP3D1qf2Lfx+uRfdvIGFLw/TlDgziVX2r2O4yh2pbmzVL99JZk7ImICsk5zUNrNq3nzc1+iyTtee9IzmcrP3Xr03OztwEg4pHQ35ubaqBMpILVda61IokypxqCL0zu7tCxjO1qdSwzGiR5x3ZgkR+mmzJJzraLHh33op+T7MebAreON09Pm3h0lcmXYOMkkHGLuYuDhi6GIm17HqdR/RucD8mW+nA1R57HZ/dXbmqHW9Ye0rrTjq/gyrLbhhhrw86QDTCVIJ4oGHSEmsZ1kOme6TKZmQksdhgvEN+anNR6aiFzbc0cxya28JbFGOjlPa8t0Y7bZEW7hTZVy35ZzkZunrY8yA/elCJOg1ZF2pNp0J3ggUVz6wbYWUU1O6T4Bg/YxDzGMN/2BemBkIkkkU6jg6Ry71UNi/VKfU+6pNxx17TIN8u9ZJdYOVYMZtOfKN9086ciDHlJxJ2XOoZn905bK7TYVbIj6j7HyRuhXoB3fig/rmqZA2OnRpTavsMubW500ukJxe7+nqmsMPPLl17xMu9KesmIFPOvq6hDjlB1kVs0ZDtEKujmQ3F0bh3H/AGsf/9oACAEBAQY/AP8A0zVv6/yLVa2RRk1pbSSXiMZylCD3brj/AJYz04SW1cdRlHtzU9NWlHfHt/XTHYOzY7AVicdPJWi0Ovg+bEt57Vjx8cZ8bWxs8apOcd8gMuOpPY5pp4owSMa86mZR37YloaffEEfh9Qv7T0y1+d7KQ5/+0TdSqPyLa+xrmBH5L0TX5Byi1+Ht3eZV1Pft2k3S4PQ8bXKW7/8AfbXkMi+o+D7ZycdD3GstGCAfeMEzfj67eeWM/wC7/wBvUS7fh8u2BIDyRR6OQePxb2tbsqMhY5+BGPw6ig5fqt/xmVyoewddsJYFJxkLHVrbNe2fV5kHVaHjH3l4hHsbZQQ6ncbSnrNmWcDCvVmnLREE4+cqc9Jb112psKsneOzSsw2q7/H5JoHkjbsfgf8AsLLe2NyrQpwL5z27k8VatCv+KSaZkjQZ/E9WZNWybYwBlfZ3bA1GjjcA9ksWU+ruyAg4SOJRJ/C5z1ciPLk9hfcT6XRz/wBF1hxkPH76ynZ3sYw0U08ee+B6jq1HorPsRyGTxeCSSpG5Ykl4nheG1YLZ7pJYkBz+3M0PHf8AqK6ZmYMdUJtZWyzdvebWw/WOPxMs4J+Jz0bd1a/H0sAt9TfnSORwe4Y3Ls2wm8h8SZFHfv0JOSfdTS1pc/zQNjXmlX/EqtFNL8w/E46zt/vJl1GHjguO7kgZJEUN6OT/AHJ14j7k7+0w9TCLRGc/BrQx/wDEeitbmHJ2buA0tfVzJgdsn3rcTf8ArHR+k5hO57eMV3S6khj+HuVuS1JR2/DJ6LUzSvxj+KGxa10pH/CZJt1B5n8yB0DHPynXIuMGOKPf0xj8YdZM1gAfia3RiGx0W3dfWvLO2m2g8R38q16OmVbv6eBPVafgf3V+4v27aN09ulFu783HJyhBCtrp3t6K1ER2PuQYI7enVGj96uF8X+6ulHik3IeOlOJcqMfZfeb6NLXG7pQdyq1IC59XHVWlo+dLw7k9gIrcU55HFodiJmxmOtbM0+quAE48kn749Oo7FaaKxBMgkhngkSWGVG7q8csZZHRh6EEg/wDYBpJGVERWd3dgqIigszMzEBVUDJJ7AdX00c9Daz0Y5Gu7q7aSrxjWKg+aWa80kYvLGfX22SI5/wA3Pbq1BU37cu28RlWrLL7kWjpyAFSum0cAie0wGAJWWGN8ZMjjv1Zll3FjX1JPcWL33WecRsf3amuX/wDGUomPwZJvAns69fXW7F+KvP8AN/VdxLNNZeNs4MJt+SohB7eykyj4EdfXbZF3FqP55bW0dpoUx39J29goD6ZjU9+hT1ByUHtpDrFWrB2GBGTAnmx74+WN8fl15aXRW4IJTgWWre3H83ozXNtJWjZiT/CnYd+kk21257chBaOtV2m1eJT3x7UUCUgcE/uy+PSnfXeR+Qx5Brej4+ufwZNlXuPGCfxOegr0NpfbvgHldSwxI/4dZFCSP2AZ+HQ9vhe2kHwKLyG5nI7ENCJVPr+GOizcL5PCuDmSDS8oIGMH/Ml1YiwD8fLoh59tqZ1GCbsN2Ixq3fLStUhaNR8cyDH5dEaDnMUxBAWKHaw2gmT2Vxcm3bHv8AqdCOaLT8ggXuEsR14JxgAmRGtSLXyPh4lGP4DtloIW2fG7coLipdexWglTPZlGwaFJYj/D4TMpB7AjozLFNAn7/vQRGOtLGO4keEqkEiePqzpg57E9Rjc17NCeFlaPZ69Z29ph3WSWvGBdrt8QYhIB+Q6oxazmc/N+FpIiyarY3RslSJSFZY3meWKRkQEBZArgn99eqlTfWoeIcjZYo7KSuxpJYfxXxsQuWt0PKRsKx9yNznxbA6gva+3WvUrKCSvbqTR2K80Z9HimiZo3XI+B/XrbTkN5a6HyWrUixLf2EyjPsUqvkrSv3HkxKxpnLso79WavINoKxlikk1X280lxTtNigGYrPI7qjxr1CwBJkURrkFInIL9WKo2y6bj6SS/Q6jWs8OurIpPjJHErmXYW40yTYlLsmSA3tnxD2NakiVZXYWOR7XzeEkMfMU0Ofq5VYMMIHjB9Suc9DZbOYbLYR4aTabdkl9uQAEmnWb+RX+YfKB5Sj/Eek0n2o4Lu+U3JZBCt2vrbNqvGxOCQqRe0EUdyZMFcZK46h5B98udaTgut+SX+nTX4rt5VYBvYWCpImvpyMp7KsodT2Mee3Ri1dLdfcbb1+z3cQUqnvRkq8c88sFh1Pl2BEIyBny6C6Thui0CouEarTN6469vllnvWWoo5x+8lXt+B9Ok/p3ALnIFn8QFs1dhbpsSAB7a6SDS10Vs/xFgc+vUcnH/sxr6KHASaPg2luSrnvnzu0trfXH5/+3pQvH6lGMgfyX4tUr+K/h7cXFRFkfhnom5o9bMfXvwyhZb9vfjnnn/19M1vj6QqMkOOMbnXR9vVvco8cSPt+GSOjBPS1Ez4JNW6vuIR2/dg2EercHI+LY6dt39l9VusK2LPHzVXYKWzl4KtUS1Vk+I8rHr/AL+jFR23Lft1fLMsWu5bS2kGvZ+4ZV2VOWKsoVviZJVH4dO1l4ORccyXksLSp8041KFGPeuHXww3areJ7Sz02VP/AJnTSprrPHVnOWucYm/6s4hakAHe7x+0r7GlGF/eaGOwQewVR08hq1ombzMe44uWu692z80l3QyS/X1HXyy61nDqxHuAYK9NuOPzNcqs3y39NN7wlCkkRTxoE+oZB2eOREkHcKCAW6q3Hnt63Z05D7O31Uj17EbKfFhLCPFWVx2dDgEZUqwz1rtLyDew2tXLJDA4uyluP7Dusapbic+egvlQAGBWAgEAwA94W0t+PXcgESNb49dmjW0GKeZam+VW3GQCRj5iFJAZR5n9dPGWhv8AIpoHlqasyhIq0XiT9ftpQQa1KPGQuQ8uMLgeTrvNTwjfV95yoCanteaS+3NpuPeIfOt41VGa1m1X+YBgPYibLEswJN29Lf2Oyl2dtmsbG7LNevbO3I/cBWPu37DN+6uRDHjsCBnqPacpBnLFZItS8xmjYAhkfa2F8frmXHaFPGumO2e46j1P2/46byQFK024sA6/jGpXIjxNdCeFiSMr/wCXrLJJ2xgdU+d//wDTPL0vOR79XTX2ajWndQkhraXi0Bl2F1o2+UvZEgdcF6qg+XS8d+wX271XBeMonsx8n3tCGvYtRKAEm1+mqgNIhAyvuMYl9B4egh3Ww1XIdvUueDjknO7EnHOLivIR4SUdZMFl2dFf4TBWvFcEA/DqtN9xee3diyKvnpeG0YdTRiK4Hsjb7NLlmzBj/DUqt+GOon1P250tu1Fgi/vhY39tiPiW2s1qJcnuQqKD+Hp0I9Xq9drYwMCOhRrU0A9MBa8Ua4x/ZMVqCGzEfWKeJJoz+1JFZT/u6b6/h+k8nz5TUqo1Vhie5ZrGranOzfmWJ6nr0LtqnDOrB9dt6lTkOpcHP8tq1pa9gowOD5yyfsPp1Y2fGdFLpr3zum4+2WwlouM/uLPxecRV3QE5MdWD8vPHWwunXpurFcu0+601VuL8tQrkqN3rDBPrdmw9ZGt1nOB/nJ69GHk+qd4X7DZrRnp2CkZwrXaaPK4VexWWrPYQH5v5fwOw4tdi2ks6Dz1VuxXS7ej7j29dtWU0N3+ArXo/fx8sUrue1mKzBJxvksPkksn0r1raSrlWXYa2w6m2gIyf5hkX+GdyVh6X6nyrrIzijtajmXV7KNWIwsxUKpyMNHMqsh/eVcZ61Ws3+xv1qFOaJaOyrzOLekZXUoabyOTJR8lBapITH2zGVI8G02h57taP12whiGj5fBKP6bt4yPGNbkjMWjsBgVdm/mIw/mZxI6pJG6yRyKro6MGR0YBldGUlWVlOQR2I/XFwC5RXeCjLckluzRpQ0GvSNmfbbZ3ZURVQExRMR5keTfKPm3vHOK72/X0VuexFuN2ZJI9/y+3jEleLy8ZqmvyAPb+XxTBkAOI44ZbSWHq2pmXU6Wqx9y3hwTIS/wAq1ogwaaxJhF7epx1GYqY2u8aIF/ZTx12or9g6xyS+KQwL2DzSkeZA+PrHt+cTpHq4E+rmrTzDXUPpYwrG1srVn2hV1vf1l8TN2UR/MuYOHfYPjNTabqsqVV5la1gXSaNj/LB4xpp4mR5cj5LdxGllwQkHfvBzn7l7G1Al5o55uS8w+ovXZos+SJo9HPJ5yJEO0bzNHHH44VU/d6q29dxyHkXI64VjyflCRbXYJOpB96hWlj/p+qZWHytBEsgHq57n9L9NyPS0dmoUpHNLH4XK4Oc/TXoTHcrdzn5HXPx6vXOI/StamV3bW7OKt5zyEHAaRlio3XJY4aT6aYADM7Yx1dbj9Sxx3ZJK7S8c3C2G45uSPJsUL0qrY1luVE/liTIYAHyWPuX4p9wtVb0PLNcvtQSX0MW5pCNR4yQ2owrb3UxgAiWItNEniSrJ4xtZobehHyzi1qMSTIfbklaocrDdgkA8JDGqnwsR47Lh/Hx8R/WeN2ZNrxyV3jjm8C2w0tkAM2v2UIzMRGGGVI8wpDx+QJUxazaNb23C7NiJ7+rWbzs0PIr4bfRTFwgnRAGC+QjmQAZBCsvHeP8ALN/Hv+E7uKFeL8uV2lkoe44iWne8v5yezMDHJE4EiSKRgSgrLDaqzRWa1mKOevYgkWWGeGVQ8csUiFkkjkRgQQSCD+trOytWaa7SWrZmpRXJkiq1K9aNntbjZyMyiHW0EHkxJHuMPEEDyZdtqdZuLjaaW3NMxMzRbHlN8EsmxvBgrVqgADVoGAWtDiV1EhiSMbXZq9xrLquv1/zrX9l2zF5Rk5i14B8gmfcsAF3IjOXbYS5qUvKvFu+TSwNIzsXCw6jS11BexMznwihhGGc5x64jNqnBDLV9uxDqvKOzZExA9q/vbCllvbmXxJggUmGAZ8BgSTiprtRr7+n4Ibfmntxukew9l/GSwGb247skIJDzyMK1fIXIOT1Rs29VR33JIY1YzWYhZpVJmA9xkEyA3J2xhndQpGMqzKHIVQFVQAqgAAADAAA7AAf7BPouZaKluaM0Txq08Si3V8+/uVLYHvQOrgMMHxLKCQcdXuR8cqWOU8Rol7lfZ045P+ruGCMmRZrQqmO1a1tUnP1UDh4QCz+2MsZOMc/im2vHPdJo8jhiU3NaJXCRW51RYonjkAAeeMJDP4+MyQyBJA2+4hJU+ov1RI9QFW49y3WkswikUgRwykswR+zQS5/dJfymloQyaq5FNLHPr7w8LWov+WZadpiF8qskjdpPTLBzgnyll1G2W1Pw+/dWLkehm8y1Cx8sR2+uRs+zciQD3AoxPEACCVQjR8L5Tvk2vEN2sP8A0pySWcS/06Szho6VuZnJEMjSDOSck+Q+bPurJGyujqro6MGR0YBlZWUkMrA5BHYj9abDkO3k8atKL5IVIE1y0/y1qVcH96axJ2HwVcs2FUkcho1NqkmqS09az9LO3s7zYUmJg1FLBJPGtAwBYjtZs/MckozWt1tJpJqCzuw9wl4Xw5cjx7q9dDk+PpK4y3kow6cp5JHLrOPV/B5pZI3+rtrI6sKldfFpJLt1nUMR5N8wUZyokg0/Hqtata10RrUalcRSU+NQlTFJ4ge5Fd5DOgKyynzSDvGpb5y1Hl/3Bq2qfFYpY7sGt2AnUTxTssv9Q3hYpOyXFAaKorLZuYDyNHAMvX0fFtbBThighhmsiKFLNoQJ4RLIYo444q8K9o4Y1SKMfuqCST/sRBAIIIIIyCD2IIPYgjrbcz+1Opgo71UsXdpw6nBGla9I6lrF/jEACw1b0gH8/Xjxr21/yxHKAJdhx3Z0rP8ARVtyNb1DxMtjWTl2ibZ6P6kxNEwdPGWs5RJfExv7cirIn9a07xtslgA9+r5JHuKS+QEMqusci2oO4j81WWNg0TgHIVtU8aV+YUYHk0Vhh7cfJtfXjMj6iRj8v9TqxjyrnOGX5P3SvtxcL3U9g6a9b9unDPI0b07wchqae6y/TzNKCYfTE2UPZ8rr/txyjapZ2temj8U288vfa0Fwo10pch1uVuyqjdww8O2URf1nf4HxncrWrU6dr63YV5x/pdeVeHYbNfBu9zZgGvT75EBZ07y9ptVRkkj1NRzHIFdnioa6OTHsjBVXnkLfzCM+5K2P3QPGvsdnUNXiWheMzvIg/wBfdgYH2SWHhItZ0y2R4PPnIKwgNT4vxCFY/py1LWRVyV9uQKyT2UKqzrY8JCWlILQKxxmeQLHT+4H3AqPHoaE0NuOK3XzE84PuRyvBKSk9oFf5EDeaRDDy+WAr1NJo6UVHXU08IoYh3Zj/AJk80h+eaxM3d3YlmP8As2x+4PBaNfX8818EtvYVoIVWLdqiFpbRRAP9WyLibHaZB5Eeag9X9JdqTUNpSuSVbOsun2P9XGQr05nlwsM0qj+ROSEb5Q58cMUt0pX180tsPUvqrVrWj5FFNiITZ8ZagntjwkVsGG164EsnVvkQq/07l+hmSrzbWwp7DTWIyor8npRp4+EdwBTN4gASHyHqetXPLtJKm30V6oblhZGSSpeQgUd7H4FW+mvpF7dpQQPIMewwGo7sSxJyLWJDQ5LSV1Z47qx/JbUKFBiuqpYEBR5ZIAUrn9Y7jZSWVj3G3q2aWuiV/GURGMrYdCrK6yTeYiTBDfMzJlkx1f1sN6S5v+S7KR5BDJ5u0zSFI0iVQAtekP5cQAALKWGRnrWayGPzt3rsbbK+wLRi0kYsW5i/xqaOm3me/eV0UfNKB1W4Lxjxpwa2jCuysQBTYVXRFirfJgvtNozKxH8EZUY8XBWvyflVSSrTiWtsdm80bPBx7UMwkp64eXgJNtcHzFFIYElmKnxMeu45x6jFr9VrK6V60ESouQihWllKKgeaUjLHAHwAAAA/2ez94/t5qkTbVY8bzWU4fFbsILOYQkQAWQklqjDBWTMHo8Ajt22geciH6Xkeu9sq9+kirWTaxRAADbUEAjmChWlRVOC4B6bkmvK2t3x+osO2MQDf9TcQsxu0Ow8FB9+3Uhyx+LeEqd8oBT31LzOlsyivsa0RJRtfb8ZJYVGQHCIFnrn/ABJ45JVutLDc2DWeO7SCtUugSEw7Djtr2zDYUsQrT6wyI6HIBiwSCIzmrfpTR2ad2vDaq2Ij5Rz17Eaywyoe2UkjYEft/WDyyusccaNJJI7BUREBZ3djgKqqMknsB1vKVLa+1xzQJbrU2EmEi1utEnndKBseUjBpgpJHuSRsv7xHVjlkkLy/WbI67jNaXPtV4vcMcdhuxCxVoMsW+GC3x6XdR14pN/uoBq+PRTqolanE7Sy3bChg4W/c87djH8IhjBwqdas16c+7pwcgWrpIJR5x8k5dLKZbW3tnBQ6nSqXmdv8ALXGf3A69anh2mSOa1FElne7UIFm3G4kQG3bkYjy9lXJWFPRIwO2Sc/7Rd1Wyrx26GwrS1LdeQZSWGZSjrkYKsAcqwwysAQQQD1f5HpKrnjm7lk2IeJPbikSy7iSx4RhY097JSdFAAcMVHipbqpt4FzqXldJ4wMivBdYPdqEAKBXkdRPEv7qWEdR2lA6ntU4/PUMFmj9oBlXV3GaVBFg+JbW2lZoe4/lAjsrdxpjZ8dzw+xFY10hYsJ9RM5aEA9jLBDIzRn4GGRB6dRcUv2/c3nEYENRJZfOxJpJH9sRuSS7ya255RMx7sCCAFx+sOR3obf0u55NFPx/WOj+E0FeWrNY3V6Pup/0uqidQfhLKg+PR4xQsubfMNi31PtsXarx6nJ5+2AO/jY7EBh80YC/DqHeXYkqwRLFqqcrqoECPA1rbXQcd11+pgeRm9CGiyD5dUOOaRZIUve1ptTWTt/S9BDIlVpR6hLVvyWNSc/O574QYo/cbZa9Itlt9cdXw6KSIK9Pj4YjY7zxceaWuSXVb2yRkU41KsUnI/RFmIVVBZmYgKqgZJJPYADqxT5X9xaGz31dXzxjh8T8o3jSJkGGRNeTrtfKWGB9XZrrkHv26sVvtv9oXaEF1g2nPOUVaFgr38ZX0elr3o42wM+P1zjP49Ea2rw6ojE+FOkIp2UHJwJEhWy+APiT6dRzWuMXLUDdy9Bb0SsM+sfu6m5CR29PTqKPl9bkGiUsqH+qaPU7Gk0hIGGnra/V3Uj7/ADEsuOoDMmo2ySeIefjl72LiEAFwum2kjNYZM/MUseIP7evLj25r2bITzl1s2auzgA/eMlKfwmZEPYunnH+DH9FutEasMu+11Wzf0EskQkL2Y4WMtBhgs0V+NfAqMeTYXIUtnacb2dWQa641mCJJj/MjCytDPTdxki3RsL4E5yCFf+IdbjiG9Ky3uJTNSlmk7td4vs09yhswMnIihjVnC+klQp6Eg16+wZooaewk0+xyW8JdZcbwWUnA9yONHSZTjBKDHw643altMui21xKmwi8/5L1bgWC8vqIx7tUeYY5w0K47nqC1WkWavZhisQTIcpLDMiyRSIfirowI/I/q+bg1K/4UOMa9dFIIpPk+tsQQ7zlVpCpyJI4XpUmH8MkLD4nrab6dXmrLd+iqhAXEVDXSB5xF2OPdtyKkfxJBX9lDhsHt1n0ekgj3kieIRNnsxFs94vmvYGuYoamex9isARhutVXuQTx61pl2G7shSravjtNDJNCsmG9m0uvYxJkELfvIfQdU9brq0NLX66pXo0addFir1KdSFK9atBGoCxwwQxqqqOwUAfoZtnzXc15dy8TtreN1Z0OxtuqeeZQBIa0CqQzMVJCkEgKfLq/xrg2x/wCieFvK0Pt052qNYiLEJ2jcTTtgn5pGmdw2FRcAlbe2u8n2a2ybDkK+urWPNizTLUmePZTwTNnFhq9eEt2MgPYgXtHxtdmij+VsJpeXbdGIyc65I9fqqJJAwLFqyMZ9QcdGvrtnf0lUfKqamnqKACrnx8IKNanDEPmPY+ZH+I9GSL7icvqTMflK7qxqpi/ww9Os9WIfgzSpj4kde9W+5fNmruSkb3N9s9jRlYdjGt+LY2KjEY+YBX/Z0NhQ2M12xGyyG5QAF1jGfIEiBE+tCMRgTxSeR9UIHahR5wv9XgrSxCHZe8+r3tN0bCyVtzWxF78friaGNSQAJIh1Q1283qWRY8IINlbRK24pTYA+n3FWNmiuqo9ZoC0yqAzqwYuIrNaWOevPGk0E8LrLDNDKoeOWKRCUkjkQgggkEH9DY5BpqYg13OILG/1Lwp4x1eTUvBN1roz2jj+tV45UUAKrSA/w9ce5osZCQtNxjk1fGRLqrkrZ81z4n+mbCIyKTnIJHYMetTyaofJkH9Dv2Vw/kYR9TorzuvaZ5KhHm2cd0X4464zvYZiu01fhStOGDPDstNKIT5/EsfaVjn97OfQ9cR2Ulj3ttx2Ecc2gd/OYNSRTTaU5I8vpWEfw7xHtj9XbzkmzcpruP6jZbq+4x5LT1dOa7ZK+RC+XswHGT69crsWbRmv27d6a77bllfZ7ay+93LIpIwHvX46+Ph7GPQdQcm3Ua/0zQw2d/tJZBmM0uNwS7Wy3kc/Le3AbI759r49LevA/U8iu2eQ7L4j6ezP78NY5Jx7kLwREHs0YfpvuFs6gj333GkE9Z3TEsOgqyMYgDjINy12fBIZa0f4fobHHuP2dftfufsajezBNIstLi0U8QaC5s44yXm2Mscgkhqj5vArI+FeIS7Xkm+5DsYeO2Lk77Pk+0sH67eSJNJJLBrBI4r0dPVfyz4EICGcv5eke33ps2vYjM0dGmITsrMaqxa3s9xsUeDUwkjJRYZJZF+Y+PZi+j+1PEaPG9TIxh/qVLVWNzttgzfJn6/d/WVoZJMf5qQxTufUj06Uz27+mayv1DRSbutrpzHIWPuy6vVWEkgEhz4+8kXkcgZ6ababDkm0K5d2j3NaKMDx7sVt27Mx/Iq4P5deV1+R0lUgCWzbmlrZHb96RZKjkn19T/wCroys1+3D4mOWfW2Y0naMgeS2qi1nSeA+hjVJi/wDhAz0k/Gt7Wqbj5lNKyx1q3ZQ2DDBFJNf1KXgzePgvsA9h7MZBYvFtayUNuQxrbWeA1nssP/59imk1PbVix8fdjiWaPt87qojKamxNNpdvB7LR67aPnXbWqPF4IhYilapsNbZjINe5WlZ658SGCeS9UeJ86vW7fE5ZkpyvfkM+/wCAbJm9uT6kkCTaceksOPcbAkiB90dy0bVthr7UF2jchSerbrSpNXsQyDySSKWMsjow+IP6DlCVq3v73iMR5hoyq+Uxk08bybSrHgFmNzTNOqqP3pQn4db2tFF/oeVa2bdUFC/Iu2pGNdhWU9vHMwryhR8JWx6Hrd6Ox/Mlh1Udmsx9fYrs0teZDk+49d43gOPQVVB9e3KeG2m8BbjXd04nOAl6i6a7bQxD4l4mhkIH+Fj8T1zT7S3rOK3I9T/XdPC7YBv6ktJYjjGcZFSSVj2ySfX4fq7mth7H0z780+PmQHBWlNI2x3JP/htpdbYRvhh8fHq7JI/uyWt1ZtTKD5K0z2nvWkx3Xxe5ZRcDtgY9OjTrL7Ox5pLpuN15AMO1J7K39mB/F5PNXCt/iSc/D14VwfWwPLJyjkGn0sUUQzImsSZROyr2BMNJZpf2fHA64/xXWRxxUOP6ehqayRr4oUpVo4DIF+BldCx/Nv0G35bbswHklytNW43ScJK/1bo6pc+lZl+oMTA+1GxCySDufFX63PNedbC7sZdres3Jqj255ZmrzTPK8Mlr/NVrckn+osYEkhdyniceFS3WpvruEa+aOnqooajqm+t1yAkes10AzLpdcEHtxKVSZ1DzSP4qivHu9vT03HNSPf2m0uyx3LFl4MNJOCsc1aOOJwRBFXilZ/33cKPJBxz7GcBh2lv3BRt885FSG85DsrL4Rq/H9fP9ZR00kj9kEAmlHylwrgBlpaejynjmrnPvWNdxqsur2lv3wP8AV7rYOIHEroO8hD9uxVQAAlvbVeJVbZ+b6rm/LL282LMxy0jPW1/ImhkJGSF8PX09emZo/tDtn7/yopLjF/IEt82y4rTTBI75xnqa3c+1mpqzx5f+q8USm1ZT3OZpIoINcsbEZJYxv8PIdSbZ+O7DWGBvFN6tA7TjtweZWOlt0dZUrRkdlJmlIZh7bjp+L/cLTS6tYmWHc16fv7ivXQjA32qoXZG2TLXiPuPBFN7zR/uEOo9yvtdW1LmHCr0H9S4jy7USJs4KkU4MyVxbhxOKlxmPiCqyRTgrg5eVVsXJb9jTV5oK92+vlNb18YkECNdVQRdrRq6+MjD+akhXJLYMHFd5sktaquKzM3v/AFB1la2FSttqbhmaTVFyElHwQqwzIsnmkkbrJHIqujowZHRgGV0ZSVZWU5BHYj+28UqJJHIjJJG6h0dHBV0dGBVkZTgg9iOudcbgrtH/ANCcykv6hSjGaTi+2IkoR5z3WXQ7avM3qpeIH4ZFuJ1zBrd5Y1NpGHyf0bf+cmvaQH5RHBcjzn0xM349arYp5AQbWanYIJ/nL7s2pvg/ErZRVk/98H9v2m5mtgR0IuVaqjspA/jHJp91PHr7oZshTGYLPl37dvh6/q7WaNLHtNYob/aSJnBkNiODS1ye/fwhsWcDHcnprDBpWa3XQdvJ2mvWJZVGMZBLtD+fbrg3G6v+Rrp55AFOE9zV1YYffHocievICfUlPQnqPktmD3KH2947c3CMF/ydnaZKeulU48QE+dT/AM49P0F/bbGdK1DW1LF65Yc/LFWqxNNM5/EqiHAHcnsOjxzVXB/R9bYsVdNTeUmjSqVfL6vbXFQ/+XowQEuAAXMSlR5ytnRcF0lSaxDsLMddlYiO1uI4pvpbN/YWFOIat28zRxgHxjgD49Cz0/tbwuxrhyYaPPMuWTRrHr+K8brqBsXVIyoie9PmOGsmPMkh/m8FGn4xx2Dea/g20virqNbB/wD3Z9wrSu4m2F4n201GlVYnc+54xxRIWK+ABioXeRavXbXlZroLEdVS1SkpXvQXYMBcsQp/GsZhikfPkHXxCxUtbSq6+nCPGGrSrxVa8Q/COGFEjX+4f2LabTTV6l63FJHJstdDDXnm91WVxeg9tqeyjkDYcTxuWXsGHr1/1txOqmtWGwz8f5roq3sw6/YuxaHSclpjyX+mbOTtH7pf25TiOUnIa1xPdRrHpL92apyXiWwjN3Sx7M+Rt2KVOf5oa21ijaYIvi4ZJI8sDGTD97Pt3r1l4rZMEXPuIZW1/QoNsfZluVJAc3uM7KSxmCUKPpJJxG3iqxdaYy27FrhP1kWWLtJ7nEtu5jsRfNhZJaAJ/AB445B8QU49LdjuzaqlX2GitrJ5jYcatiNq7Rv39xaDzIoP/wAmWMAfKT+g0XKK9dVi5xwm/prDqoPu7rjkjxCw/b/N/p+2poufhB29D1udIzGODeaGNq5bIK+00Z1diQHuJPooFlIP+LobDxKW/qtXam8xgx2bVdNZtFOPQxbKipx6gt3/AD016GRlsUhHEHBy0clRlaswP+IQe2f29fa3m4f3H5RwHiu4stny/wBbb01R76FviY7vuKfzH6tpcbWbHt6nU0kUNjw9+QbHHYg/MbTdjkHrVX5kzB/1U88j4zmLj8UFycMD28ESmPj8etLLL3ePQG6yg9xPtXt7F5PzXFwA/tHX3N51JFifc7nW6SvOV7mCjHYnswhiOwV/ZfA9fPJ+H6CTTRWjVuc1nuxWpVf22h4zx6sm05DMH7EZL1oT/wAMx/DrkXKNlk0rFvY7rZTP5AV+M8ejm2kNFz3CNs3qRPKR3b3Ac4BHWt5BX8IeV845Fq2pTFY0/wCnuJa/YxVdckYK/wAqxM0cjEdh5AEjKDy13Fakc9qxyXawXZ6hy0j04VabXz7EyfKBV1itaCPlEklMjsWbEew5MtSGW5raMPH6uw9v5RZmhjkuwUCyhoKtGmI4x/FKJyz98Bf7Wz49v9fW2ul3FOfX7LXXIxLXt1LCFJYpEPp2OVYYZWAZSCAepuR6SKxLxjZTNLU2HtmSRKxZrlRrDDAktUxEJo27eclWwCT8xL8S27hodlQta8QyEPFJT2FaaC/rssT70DTIyxA+Qz7i5+ReqOudfG1q9rsuMHII9izXaVaUIdyWaCcwVTG5z/JsEZLq3XG9Lt7cjbLgE0NVvdcme5wy3Yl1d2B1bLSyaiUOB5dlWSAAfLnoMpDKwBVgQQQRkEEdiCP7ek5EkflPxbmdB3k8clKG6pXddYXy/hV7wq5/EgdcTuKcfUSbrTzMVCgzazZ3dRGi4wCo1stU/kW/Z1yTXoCFsJc2FJQpRWGzV97UChcgqkuubGOw8iOtjrT2CLWtQr/wqGrStj4ZVIuvtvC7l7HF7vLeL2CSCR9DybZXqSeuQE1mygAB9APwx+raOrMh+Z6a+Hl2Ip2d3WU+P7KIH/u9au/jDWDzCdWx3LX6uuoAg+v7sznI6Mfxi4tAmD6+EVPiqQtj/naYA/t60jeHhLt+Q7W/KcEFngp6vVSDv8BY10h/aT+g2nF69hkTR/b0a1kRu8c20iu7zb2EGfWWlNSgcf4fz65hvLw9sXOB8k21skjzNGWSOpVqKT45E9FjGmPm/nDv+Gl3G3GatStHtLkXfxdaFA7F6keQVMPuJHBj1zMg/iz1yj7n7uES7jclKetldcirUuSvdutF5A+3JZEcBBByICoGASDx3UvH7ds0k2GxBGH/AKhsv9ZZST0LNWMohB/wxj9ByOzPUE9nQ1JZJZFUGVNfN8rzofUzVJyPb9fH3XPxOdvEW8drwTe0NiqnIFrVyS1tkqMh9YHkqO49WwWXsWOb/LaP/lLu40Oxb1wrGpo9lTmAXI97MdsE+oDkDrUbFJDFq9ltrlS6FyVk1m5rQzWgFHyv43wXQenko9PhxHZs/uSPp4Kk0mfIyT6xn1k8jHvlpJaZY/mf7f3OrlA8lTS19tCCAcSarZ0bxIB/i9qFgPjk9aCbGW1/3CusSBj+VtqfFbKJnBGPOox/ax/Hrh9k4CbDjmhicDJDSCDWKXYd8k19qynt8eoahyBYpWqeCT611LtnOMn3KJ65xqXbyfUfeHcyRjOfCrsuIcMljUD4A2q8x/Mn9WrVLE+y9tgD/wAPIuaRdvwACgdcGOfmsf1KB/xJdLk4/aP9InT0R2ebiejj+Xv2ubFPArj4tCyfn2HX2yRU8DNDyi03/F9RzTkUkZ/uhKgfkP0H3c06O7NC0mqr5yfGSHWiSQIvcFTT1Kjt1Jx2ofF9zxWnWXwIy1PW673Ja7DOcSXbFZwO+TD+XXH+M0/JJdi3E9HaKABg2xki5FtZm7fK9SPWLXYgd4ovw64ZpUrr9HseSz27MCj5DrtT4C1EOxCoaGoKDOcfoeW8bljWRd5xzc6tVYAgS3NfPDA4z28o5mVhn0IHX3I9kFPY4jbedQMBq0XI7NOhM3wDI+4RR+Ik/IdbfkVSWOxHW2Gu0Nr2WWU0+Qaja65J60hUt4STabcQzAdj8zDGF64xbJxLT5bZpsRny+mpWtPcprg+oWjsEXPxIPXDLLMXaBblJ3JyWmrTeNlifxayzn+39xKZGff4luRjGf3ajyDtg57p+HVyEDDR8q4zbQ9yQq6BJZcDJGGNcZyPgOuE2/jW1nHF7HB/1Ol1BH5dzW7daTGVMlw+WO3e5tNhCf7mWX/d196qeT4wc345ZA74DW9DYiY+uMkUx/u/Vs4OfH6CxYXPw9zl3MkP4fFu35dcAkH8Gzng9fjZq2v7u/mOtDXYZW3xz7Ztj1ytvT6vZNj8iCevtZ4en9J2wP8AzDk27D//ABg/oOV6iy3jDuvuAafzgYKWtJsKHzY/GV2GOuFw7CNhWp8nXjO3iZTmGpHBSW9lcHMlcSuxUj5vDHWutWJU9n66S/UbIKPJdSTW0yhLYOY9z2IyAM4+HTbQjzGj1W4gBx/lXdlu2EZJ/E0Vl/ub9CkVOGrsOR2oHtw07TSfSUqEPn7l6+IJIpikjRskSKyFyGPkAhB5rq6axxbDln271FWykDkjXjYWeP7wiH5c+5O9bK57qjZzkqeuQfbBq3u/9Q8z13PK85nAarDQ+n47sSa5jJdbANVi3mMKnoc9cH0bDxk22v1+8Kt2Ie3s6sJZhnAYxzRofjiMfh1xJ3GBNt+WyRn/ABIvIthBn+54SP7v7fOpZnSKKPiu7eSSRgiIi6+cs7uxCqqgZJPYDrdbCGUR65NhFIksgKL7NPWW6Ec4X18JGqsyg/NgjsD261tuBGjji1/FUiVyC4EKtRiZvEAK7xorEfDOMn1PHLMkJqyynSzPCZPcaJ5L7S4ZzHHl/nycqMHI7+p+/CnHsjkvByhx39xtXyES5b4jxVMD4d/x/Vsc/tke9xdJ1PcZLcl2tpyB+HtXs/39cebtnV77XWpD8QiMKbqe5GC7kf3dfb6xnC2tH9qqq/EMU49Bp27H4+8o/v64AisG+hG9pHGPlZN/spyv7f8AUZ/v/QUOXSIY6w5/xfYWpgfkard1tLcKM9u0sUlpTj0Knrm2pRPGs/OY+Z6/Awn0fINBNHcSMAeKJX3NQgAdgrrj1HWnotMyX9LBsKSMGAd631NLYauRcnyeSJ0sIcZCrFH+Pfnc8TobibXQSTR5GYVmpXxNAq5LARbCKbP4qyH4jP8Ab3XLNwSaenpTWvYRlWa7OqH6elX8u3v2pcKCeyglmwoJH3G+6G33li5yTeaHl1mHTyXbL6Hj2relLV0Wor6/3RH9FrEeKOvGcM5T3ZGLMzNzff27k1qDWcZsNduTyNItvYW9hUr1HBYnzkDWoljxlmGcDGOt5r6taSxquL8Du6nWUlk8IxZW7qxb2eydRIBOtX6llRckEIARnzPEyakVQ6niPlPDWLGvC1DbSX4/ANlo0KRQgAk4LAfh19sqNiMxTy67bbOSNv3l/q/ItxtEDDAwwitrkfA9v7dL7UcUv/0+3zyzNBzfbxyCN6HF6VWO7Po45ezQT7lpoWncEEUwY+4mPjx/iyW5fpbm1kvvX9xi08Wvq3bIiK+WTDC8jMF/d83B9fHrR6S1ZMtuduHwu8j969R1ozmaw7ZPaOUhQcs2M/maFmkJPpvr9XHCZF8C6rZibzVMkrG5fK5wceoB7dfdLcyxPGm657r4qzsMCaHV6RYy6figmtOufxB/VvEeQCIiLbcThqRNg+JkjrWyfQ//AMirk9vU9bzTDvJHX2ssSA/N7mu2Pupgfi3vRkft6+1XIoznx1HF5R39Z9RY0N0rk5GVW9jv6FT0KCSCQ6vk21ZGB/8Attl7Vqv/AHEhyPyP6Dj/ADSnB/8A1HRxU/cRTgbviuylmglkkJ8Y5Lep5CY8/wDyq7fhnrX7SBQ2+TW0opIF/wA25Yg1FOG7TcHGZCymxg4AkiwOtTvpVkenp93FBuIgreb6mxK1G8DHlWLw+4sqqSPnjAPXJqVp4djxXd39fX2GJVFeWndhjn1m7pWATGkN2qkciTd0MbK2fDyzU3uhuJd19xMq64EkMoA9ytZiyWgswk4ZD+RGVIJ/tXN/JMSYNdyCWrRLeMdrbzwUNJpGlAwWEVzdE4yCV8sd+429iSeUSbdlq27eWEk4te80lVWHyiF0i+cD0AUfukjrc8rsbCVeScxtyvrK8piig+j0VT3prrwAPKyU1v5d2dYvKI4HkO3L4+NCOltN1qJNfLsIkme9bgj2Ota3KJRmCjJbYu0knaeQp3Izg3bkmttS0q1KHUmS5FMIrNu3sKFxqzSSL+4IKnnM3otYSEkHGdRoKWTV1FCtRjcjDS+xGFkncZIEk8mXbHbLHH9ulxr35WNXkfI9ptJ2k8mn+pdWqVVA9K1WpFEQPQ/KMAIMycp3NUvcoca5BudYjvIEq1ZSaFGExBhGxBrNNnGWZ+/bt1x4zxrNbfcRRxqqqJ549ZNDFCkkhBZYq9aIIpOSFOBn064fqWBikv7bTxT/AE6M7JHC8BmEK/OzSGOIhc5HkRnt1xmk8P09/fyWt5dqAYWikkz09dSzk+ckOvqxtI3qZXbuQAT+rPtLzqKDIoz7vTTzBTgNBNQvwrIQMeXsWJ/HPcjy/Dtf1LnEb7m1VAz2+n2mqeaAFckhZbmqA9T3I64j5HL6PZz63BJ8vp5ZtokL57kK30tQD0Hf8euS8daYNLHDTtFSSSP6V7Otjxk/vzQT+4fic/l+g5Xx8QrJstZXk3mrbA8xJVrTw3I1fuUWXXzyeWAT27d8dQXZYTUFTb+3sa8yFY6G61GxPuSTxt+7Vtyz4k7YYSOT/COre/4vCW4J929bFzTijrh1ryb+H6na6QmPKpd1O6aZY09WUBe8ikGpxvkrvBu9Jqq+lS4fna5S0tqWpQrW1AEhmoiaWGOTLExrHFj/ACwKdDY3l2fFLphgLvOZKxrKfCOKeRfP2XrDIgsYJg/ckDRZCUuRcdvRXtbdjVldGUyQSeKs9ewis3tzxhhkZIYEMpZWVi09qeGtCnd5p5UhiX/mkkZUX+89MLvMdKzJ+9HQsHbSqR/CYtUl2QP+RGenTWUt7uZBnweOrBRqvj8ZblhLSg//AED066TiurojuEk2d21s2/AOY6qatVPxx5MB+J6ZRyBdZE2f5OqoUqvjn/DYaGa6uB6fzeqnDZOT7HfV9Fcq1tjLb2lrYRNtYfq57FWFp5pEDUprKRSovYShVHdSOtFwjX1az2zV+s2Vm3X+pqULDx/W2b1mPGDLUhtwVkUEeUgA6scWrWJffTS1NDBMSRaty7sw2b80eD/IgnqTxxBV7hPlz4nHVCnBA8/1UkFNVRWZ5oYZlNtl9ctdtssa9v8AMPWqu8lirvz3f6+te2UUaP8A/g0vQrYfXMZkjb+op7pSc4IibyjRmTJb+0zufFEVnZj6BVBLE/sA628EbHNfULZljJz4zWtfXcHscZ7HPW2pUlkjp6bTazUtGjFZNg8sli+FlcDKwNJYC+A7YUFu/YaiS/J7sVSq9+Kuqn6eI29xJXiSNB2HaXyJOWYJ3PWn3k6e82othqqFPJI5K8lKxZlPY/O1OR1HphfL8iONagqVfXaLVU5QRg+/DShSdmHwZpgxP5n9W8vvxV/fscE3ek5OcIHcUZpJdBdVf4gpbcRsxHoEyfTIS3+6zivKSflD3eObOEuCCcd9fPIR+zqnta/zQXYprKMuM/VaZ9fuYCGH7v1FOaQfmIj1rNJPZVavKdPrZ4wz+KTWHjXSWlJJwfbk2Mc35LCxOcfoGR1V0dSrowDKysMMrKchlYHBB9er33O4fqmn0+wYbC5WjhaSFkiUwrM6x/MxNWRqFoZBA+nmPeVmH/8AjLls6SaXXWpLHDt5bcGXQPfkQS6Lbz4868FbYshhnPjGEnLDxPcSckNKWWTS7l6O0l9vzgt17cSxinyGKJgYjtIDLCLUZAlwHXMh81ivcF5DTKbFBNFq9+jv7px4yUrcBeB49lUYeH1ESur+IIyhABp0eTbalRsEDb8Jls/02rbrozM82m2NCOORJY/NjHPEz+JJLxkEg1tpb5BsK9yfCzR8itTWGrWSAZYJdg8s8MTRlu5lMXkCGGVIJWenZr24G/dmrTRzxN8flkiZ0PY/j039V3WtouvrDNbiFk/8tVWaw+PyU9WbZnnsVqqNJLfnMOo1cSIMs9i7tJK7wRgfxGIjq3xb7bGvM0vnXlt6ES7jY2exVlp7WX6LUVKef35cNIR6BVz5T8839E0eLcfkZNZHPK8la7tpGDsxleNTcnecgOy+RkEfYLF7pbW8y5dEsN3f1bm9pVbw9mzuK9iVVq37kRIepow9RpQoP8yIxKv7/mdjN5TvrYLthkdBmaT2FWrFMqeDoZbMnicY7eSYz49V/uZy/SJLpOIzUbmtrW0Z6xv1WM9X3EJCTuk3gFD+SyFppB80MbH+3yvZlvFqnH9q8RzjNh6csVVc/DzsOo/v6+5k9aRZoYuSS8bqyBsxvFrJV1QZCcgI7RsR8O+euZbpcmv7+72EMjDv9PVjKazOe/aeWONfiO3W2ukZSjDQqKexHjXoyW3xjuALNxAfzH5daeZ4fKO5t8scd1qRyrS2LH1z/orgfHbIX9Xfcb7d3ESSLmXDeQaCPzXyWO3f1tiKhOV/iNa8Y5APiV63Fe3Wevd47urle5E6lZY2ozzaTcwkN+6RVcSnPxHWwqjE+w46ddtoouxedNe82vtxD0YrbobGRCvxCZ+HXBOQrakVuHcnfS7J4yfc/pFtjXmmUEZJbWbAyR57hlBHoD1x3k9WSOWPc6mpcZoiDELDRhLkaEZBWK2jqP2foNlxLkEETw3IZRVsvEJWp2WjaMSBSVLRSKxWRQVLKcgqwVl2Gx1Gn+p4vubFiVtRND9RqtjUse79XUiXwEFitbryP4oACFZ1RfHMYVajxbnR26r6uzo9/OouRauTxWxxfbWrHkW/prnFKzPlVwp91IyyJNPDLE/E9y/vLpeQRyQOGI88UbADTVtlVjPiJIGkhnXusgX90HQbbczQK6tFS2lZbOvrzfwxrbssr1JVYYV0jZjjKt172q1mpnquqw2o1sm2bFdD8mUuSUvKyoJKyP5spz6gkEbOodvKJEZZKlLeLq5IpwATWtVqcMFRMdsHzcEdxnPdodRVtauFiQJLPJ4gygk93Au3Wfv8VRD/AH9L/wBTckl2FcOPdhguX7NWsM+REt6+nsqEBz4s3/L36TZ7CGa9rEZRe3k6PrNJYdR5GjpZJm+r3dtu/lMHkVUz7UTNl44dzzGXXz6PiETNo+Ea5Ikoe/XwUSzTiP8AO8nAEzuAvcRKqszTDZ7Wyzi7u5RX0uiqjK0dbWUQ0xJFGSkVWhAB4ouEaY+R8mLydcd+p089/f8AKbsA1esKsMQ95ffsS+J9ilUgD2Ldo4SGMMF7qXXR8F0aQu1GtE+12EcQiOz2rxr9XZCYzFWDgrDH6RxgD1yT/b5ZvbsqRxxVJ7cqFvFpKmkqz7ycKe3yyS6+KE/iZgPj1yDk16V5Lk0mw2c1gt/M/qOykmKzhzj+ZHZsGX8cISPTq3YkxFJurOq1EOcBvB7B5Be/90JVjQn0GCOt7uXX/wA1fsrExHfxlmy6KfwjECjv379Hk1qr4f0XjdM+4VORtt5DIzowIwpfW2QfxBT/AHfq7n1urr/b0H3Ejbnuo8IysDSbGP2+SUImxh3jkf3WA+Mqg989WOLbKfwr2p7Gisu+PEQ7BDSq3GBxhYWnify74JY/j1vOG2y0NLltFr+qRs+K7bSGU2KaZ7B1pGYnH8MSD4jqTgm0uCXecSjitVVkkBmn1cjfRWvFSQQlO/COwzhZ1JPcfodhwnn2pju07cMi0tjGiLs9RaIzFc19kjzjkikAbxzgkfAgEWdhdp3trwq5YcaD7l8ehkSCWLLNXqcjSFGj1u3iTKsswCygN7bFGI6scd21DWcz47ZHlPrbMEH85V9bC665JHGlgZyWqTxsGwSM+J6aw+p3nGg/n5lYdhGldHyrIZVh9mWFgf4YyMdiWA8iXoct1EwBwa9q/qYoyewCmOsNbbhx44+RlHfuCei8sUqW2wJRq+f046VmNSCnhBcoiWZ8kjwZ/Id/Enuelaz9to9tKmD5bX+qbPzwA3mTQvI4JIHdEA79sfBaXCPshxlplAiqS7XVbezWicnEZTXyXLdu4SWx4vOiHt8mepN390+UbHi+iSMtFqYI6/EYvpm7/Twyf6W3XrSKApiWVpZcemT5EabjscqamuQqPDC7y23XISd1mEaRRKRlDKfBT8zZbCjX7uzx2xuZLdyJaNaaKSWretKwaObZXHjL3KlYDyFeNfbbGSpiBybM0dfY873FWOLdbr20P0VQFJF0mrIytelHIitL4H+bIq5LhEP6HUfaXWXAL29WKDYRRyjzipyS1tpslljU5CWoIKaIT2P80fA9VNLAjPPsJoWlRM+4zbOb+mU4fD1ylI2Zs/FZFPXHuKQsmNJq7OwvKnYHY3VSOMHv8wJc+PxCt1wXiyxt72+v0ZLxVSWjr2XWxesYGGK19dG0h/5T1oLc1YVr/MZJORzp4CNkoS/yNNCy4yAlCMOM98SfD0/V+u+5+no/U8h+2Fma3OYojJPPx+SKWTbV+wPjBHSEtqQkEs1SNR696W3hV01+xxBI6kjCgOazZ7ZkiiLqP/pE9aL7g6NlflHGrVTfqUOTPsdaUG5qyENh4dxDH77L6MJAv49cQ57p55J9Fs4oNnaoJIPO7pr0cdPk+nZclGvQVv5iKeyWagY+nWu3Wptw39Vt6NTZ629XbyguUL0EdqpahYgFop68qspwOx/Q3dJvtbT2+p2MD17uvvwJYq2YXGGSSKQEZHqCMFT3BBGer+9+1Dz8aszvJafRVXj+ninPnJ5Uak0taFQhOIxXmpyRj0ErEnq1WqayjzWpVJ8qTyS6Tk0SgnxC1b1eIWx4jPdfI+gdyclqPPft7tNJe7iRNzXbSbFT+75wXK8yzyYzlDMkkPxKHoSavmD6Fn7mvyCXX3YISf4Rc1TG1Ko+JNZT14J93ZbLDv8ARcO0O/uyS+Tf5azPNRjR27d2jIz148a0/L7cjKVG55Rd1uoC+Q7k15uR7LZe24PcRxRg47jqFNpINtceQGKhFJb2QgLNhnFOlXp0nUfGSQrkfvH49a/d871oioxtHNDR28H0WpjAAKyHTVvbs7aQDBEbP9G+BmRwSOoqXHddCtpa6V59k8EKWHjXBMFaKJFg19IMPlhhCrgDyLMPL9Dtd9tZ0ra3T6+3srs8jrGkdanC88pLOVUEqmBk9yeuS8pmtY1SXLMOqDFzDV1glmsRzeBHuJB9P52ypHlGkxX+EdPyTYIYNfoo5txIkuD7Fg1zT09Z8YDnW6uKTyIH+ZGrerdVdWSWbb7eJ7SL8/0+so/znjb1HjGgYqfQrgevWlp167iqbVbRQTIjYqRW1M+8vow7KNZxyrYz/wDVA9cdUdVr4ErUNbTrUKVeMBY4KlOFK9eFAAAFjhjAH5D9X8i4js4YJ6m91dmkUsoJIBM6FqzzIVbzijsKpZcfMoI+PXPftzJSlgfTbC1t+HvYRmabVNYkmr0ZHIzLLTeJqk+M5eJwP3ulpXiwrhkq3Y5u7xLloEmkB7Bq5zHN2/g/Z0/EpZ/HUbDZDc8VkkciKvsJ8zWdV55I+m3EayeIHb3VcD98dQfabdX/ADnq1ZNvwOzYkBafUzMZ9jx1nJJ+p1Vp3kiU5xGzxjAjUfo/pN7qNdtq4z4R36kNn2i2MtC8iM8Enb95Crfn1LF9Fe18UhLGok0Gy1xYgjMlTdV9izL83oroB6DA6eSDarr/ACJOYNHKhXP+GOtyCpUH/wCz0PqOcchaIf8AdU9dVq4H4B5rt7H+7qOXZUeUcpdSC0W55DPXqsw/CHRQ6eXw/wCFpGB/Z26jh4dwrjugEWCk1HWwC2CBjya9Kst13PxJkJJ7nv8Ao4/szx/Y+3ybndGTacravKFm1nCa8jxpUcqSUs8l2ERhjUgH2onPxXM0iI08+ztlEVc4kM8qyOEJGBHKwVO58fpw38LnqTUpIpkFZthtpQQjTLG0caReR+dTsdkY4Iz38UByMA9bnlckbTSWbH9D0w8RiWSWVJLcsQJ+QMxRVI7AOw+HVj7n7en43trFLqNBJLH4s5naKfke0jDr5APLFDTRs5Uw2E9D+sa/3f4trg+90SzT3PYiHnPFHEH2NZ2VRkTVovqkBOA0VhjlmAI20MLw6Hks0pljCFFpbb02FN1wPAT+ImjBx84IAJB6qI8ri5rYUt6+zExFifWeSysa7qVZrepnhE0Xp5CMY7E51tCTZDX8z4xbrbPXzxzGMWbEJB+rqsGVzV20K+TBfHxlLYx7seaG7rywxb2tXii32uDKJIbSj25LCRjGIZZVIIAwj9hlSjN/tHJvuZzO0sOr0FJ3rU1kVLm720qlNXo9crZ87uztlY17EIpLthFYjkO63lz63k3L9uNnuIoZnFTW13Xw0fG6jMxatQ1etgUDv/Jqxe4x8gPKflOz+Va1XFEvGVciYN/qliHdLF4hniT0WNQnfyA6r8Q1xMm3216Jr0UT59mdx9LS1wZcDx1teUqx7AzSO3cKD1wLgmnqe8klqGu1l4GevFDExsb7e2lXualZBK7gEt7ayePzIM8f4bx6uK2m43qqmqoR4UO0VWMI9icoqiS3bl8pZnxmSV2Y9z+sdvxjbRo9Ta1JIPN41l+nnx5V7So3ZmgmAbxPZ1yp7EjrlOofVyV+Obi3Ys66WNCU1eyifzj+nmIICwvIpjfsXgkjk7+TdWeGbImvyTTTtLpnz4m60fkZKkPl/mPchj8oEOS0iGDHl4qdfvNFYOv3OmlFyr7XmVEKMHnq+Cn3JYISCwUHzNckLmSFGGs5dp7v0U0M0Gv5po3f3xrdg0Shp5K8fibOq2UIDB0AEsOGT+ZCnjX3mlnj8zHEL9D3klmoWJE81UsmBNWmX5oZlHjKncYIZV/2a/vN3dg12q1laS3eu2XEcMEEQyzMx9SfRQMlmIABJHUmu47aMfAOJy3K3CdPLMywbfYL5QXeZ7iONgPpgikQDu3tfIhLSdhyvfxWJ59xIZ6UVpP9XbhuSLKbM8YGPqd3IFdwOyVVjhXKu4WbwnT6XTpKYmjf5bu2U+1JcjwTmvVnjENbGBJLGJMAxENb5ls0lMbzyrTkdSwgiLFbFmPIKl1RvZiA7GR2+AOIfuTybVLT5t9wNbVbWVJ4fGzx/hxCTUa5DANHa3Pik8mckRhO4LyL+s9pKtGKTea2lI7OsIeaSvBHIY7SjBMktAMwdcEyVncfMUjXq3bjpz0NrprjpFOA8Rb2pcxo06EkxymMGOUE4dVcHIlwNzQcUeT61g+4pIgRnsQ4LbWCsCFKTsCbUK/Kr+RUCNgBT5Xx2VIJYjHr99o5pGWpPFK4eTU3cAk6y8+ZaNoKWrTYA7FoutXe0m4MNKQx12p7GQK2uklYPPx3kECvj6CaXJgnBxG/zI3iQYxsNVL7N2BUXaaiZ1NzXTsPRgAvv1ZCD7cyjxcdj4sGVf8AZLW33F2DX66lEZbNqw/hHGo7AAd2kkdiFRFBd2ICgkgdbP7S/bjYexxSh743tmKwIxsfYDLP9dYhbCUEwRL4t4upMKEgys0vPOVpM3CqF1o9fBaV4m5ltqrKy1Io/lKaHWEh7JXAPywj53zFI4dU2N2No68ceImr1HUiV4vDxWCaxGfBWA/kQlpMK7Vy9PiWgLz62G2BPNACtd1hxHNaAACRU6kK+EIPyhRn061/MOS6n/8A1N9uLVRrHvwlYObctqLHNU0cBcD3tXrCVnuEZ7MsZ+aViqoiqqKoVVUBVVVGFVVGAFAHYfrMgjIPYg9wQfUEdX+Zca1EMkdmOZbFaKAEQzSofLXuqKSK82C1ZlGUI9od1hV5NlSr2oFjsv7chUr9TFFh3rz+B8RdrxkHI+WaPEiE9yF3vGxFBvoIWj2ekfC19tWx52oUhb5WZgCxi7eLfNHgEjqte1t6epG7LXsQT5kaHLqjUdjA7KLUSyDxRyQzdlYrL4M+nqTbs6PfVo411d9rIkglr4UGpNLMBHsdRL4hR7q+UOPCZQFDLBrNkYNNynwVTSaTFPaMF+aXUzSMSzNjJrsTKo/dMgBYf7FPu+T7KGlBHFK8NcyRi1caJPN1rxO6DwQfvyMViiBy7KOtt9vPtftYqGjomxDt95XtEanVQgSQ2EhtBQb+waMssk3jlcmONQS6F9xv5tjrvttRuCe/ckLRbrnGwU+4taEuWMMMjL8oyVhjJkbL+JETCrXpUaFZNdpNHRAhr14K6A1tZSTv4RwrKJJpDkgOZHLSSIsj8R4+0uw3e3sLSvNRBKwrKxVdNQVM+GAcTMDhFypOS3jS4lrYvpSFqbX7p879n3qXFNE8uV1lGVh7djbXfbaKpADmxOGkbEEMjpx37fcH1UOn4xxjXRa7W04vmdlTLz27cxAe1sL9h3msTNl5ZnZj3P61t6vZ1YruvvwSVrdWZfKOaGQYZT6FWHqrAhlYAgggHra7fV6z63U7MTTQW44/5olX3LAWYxIxh2VUlnLIuXAMyKczxdWpY4bUEFex7gnijZR4BspMVQ+IyCC3iSvcMhwRhLCyQ6vkojxYbKxUtwoAjLTggRxWWX5RLjwkHySgfKy19dyP6mLXiZWiueTxz66VSFFiOZiGhZCveTyCnGHII8hq9Nzi3NvONSCFdVyqgGn2WpTK+0LdeL+ddqQn1EY+oiA+VHx49a19tsI+acUtxIdfyPW2Ybmxhh/d+eb3BHs0iIKusjLYjIILEjw6XZ8e2lXZ1D4h2gfE1eRh5CG3WcLYqzY/hkVTjv6fp2d2VUVSzMxCqqqMszMcAKAO56uTy7zXXtmkUvsMJBPXaSMHyFGtFLHPuJEIwWjaOpGTmSdQCOtlQo7TaaPh8/ksxjsEbbc1Y3IRbE0fsw0tb5t2jiEdaP0USMPJ6+15KH1/Eacyy1dZHlZtzYj+ZSA+HsuwYFpnHhErAgf5YC6/XJBDFr4zVq0qnj9Jq48H+UmflmuuQGkJyS3d+wAD8d4xJJe3VompLarMZE18TMfKrRYEg2WZyZJfgzFslzkUNfpdYk/JbkcVvf8AJ9hDK+j4BoJ3X3716ZQfK9MuRDAp9+xJ8q4Hk0er+3fAqPt1awFrdbqykf8AV+T7yWNEu7vbzIPnsTlAscYPt14VWJAFUfre5pd1Tiva69EYp4JR/eksTjDwzwuAyOpDIwBBz1fv63XG5q7jTya/YVq0TWIZnWR/ZaNVWMXRkmSsQsVtctD4yecfVmWhSmVBJNPBDAJfp78cTYlsaaYgH3owcTVXxNGTjBDAE6zeQJYaH5JYbBaGaIx/y8rKfnrOmPENgoeynx7x9Pf4VabknHQ4facOuuIblQN3Y1F+Zq02FIR4/KvIc4AGT01rhHIbFK2XB33Dts3jN7qYWU2dVO/sXGjXPjPFiTHjl1Hy9V7UGwu8R5HDGGsSa2aZ4fFcNJ79UeVk0wezApYhwMuwBA6rjlFatuaj4ReRcbkruzemTa14kWs8g8suYpIvEDAiJ6WXju9obFyvm9RZfZ2EIAyfe19gRXIgPxKeJ+BP6N5p5Y4YYlLySzOscUaDuWeRyqIoHqScdXEn5JT5FtqgcSUNNahlqwSL2C3NoPOpArEYBXzGexI6tcf4Wf6ZVsloqtGnE889gEkIya9WLWmwf37ReIOvlH/h6bc/cDcbGxb2MnnW0/vvs95sCpJjDpIWjiijHo0oEUI7CNPiNxyw06lOBxLW0pmLwCbv7Um0tkmbaXWBI8RnPdY1AYETCrMdVqYIvaN2TxgsvCoYCGlCuUowuSSMZlJOcBsqx0HEI5oaM0prS7JEcy2SzeLw0wCWdpPiQcn1ZhntT2f9MbV6atNDJvuYbSs8lDSxFsyxweYC7PeyKD4QIfCI93IIw1Lgn271CUaUXhPtdpMFk2/Idp7apPtdxcwHsWJSPlXtHCmEQBR+ubOs2lSC/QuRNDZqWY1lhmjb4MrehUgFSMMrAEEEA9bbZ6fWR7PUTq9izDIjPa18iKSk9toF+qP0+T7d+Ae/EmRMrqPI3dhVpXozCWetta0Ki/ChYrEdgtdPY2ELN8i2Yshx8pB7qIq/IYrFNq7lKm9pCRa4AIXxkZQ30yt2DRsrQscKF8sgVLe4SSptIGApcs4/KtPYxMuApseHlFJjPeOTzTvhct6V/wCo3YeUa+qyPDvKDS1txTEfiyS36yE3KsqFc+8glXPoi+vVWa9fsyRyhANjDeOr2jopOVbcVksazZxh2Jf62FpnPYuOqslDe6jdTeStFV2UsXFuQ+4ADmC5BJY0U6xDuHR/Nj+fbqtDtdnuq1c4EcXK9Y28183j6Cvtqhk2k8PjgArIi4Pbtg9Qps6mrlkbHnJpd9V99snuU0+z+nsR/kGmOfx6RpN1a1TuAVi2esuqe+PWejHepj19fdx0PpeZ8admAIjk3FGvKc/+DZmilz/d0Gh3WpmDZwYtjTkBx64KTEHGOvL6yrj1z9RFjH4588dE2d3qK4X1M+ypxAY9c+5MuMY6Zt39zuEUigPlF/1HrLNnIGfEValixZZ8eihCT+HTrrNvyDmVhQQIeN8ftRR+eOwa1yJ9DXMfl6tG0mB3APp1Zh4pxjjfFwiyKLvJ9pPyLaePcLNHptUmtiqSr+Ej2Y8+vUsNjkXI97Xckx1sx6jQqO+fY1OpfXaebxPo0sxfIHkpxgPb5NyP+mUEyWhqyq0qhhgLFanjhpUS4JUrBWMuQCs2epZdfFW0NeVS8++24Mm1ujvmWvDdc3Z/I+ktpkjBPZWB6mPHKjXrsoP1O/2rSMsuP+8LP7Vu4qgZVVEECfwk9PNZuzb7YkP7Kow9iMkfNHVjjCwwRjtn2xk4y5/i6p6erTu7WzcnSGjoNZFLKC8jhY1sGuHZskfurnJ7Fn60/wBxfvnXk0elHsWq+kEQh2FuIEP9LCoH+kiOMMy/MCTlldDG2t4lwvR0OP6DVQJXp6/XwRwRKqKF839tV9yVgO7H9gwAAP13cko6/X0NlOsry0povDVXJpFw8kRhRpdTbl/ieIGKTuJIz5M3W0Gv49NLIyzSyamaGKHYMgyvva6aMGns4WHyq0JdTkhREo6uy8Vgtyiu8gtaR4nrX4fFmDIKM6ssi5U/KodD8MevT07VaxVv1X8JayiSndhdcAqKkrLMjg9v5LyKAOyDr/8AGbMQXZHBlp2Io1e2w7hbWtsoa2ybBzl45WA75HSrvdLttTMpAbccOuS58h8pkt6W3Izk/itdsfgB6dCPhv3k021TAV9HzEWNZaKjBWtIk0lfYSYzjxWQDB6j/wCp/tnqtrH4+X9Q41sqkUbZ7l0pwmhamz6/PPJ+XS+Oq53obDYLiu71asTnP+XLNH/M8f8A6zZx6jryqcv+45QfBaWxsxJnLAZj3MiEk/HxGesxct5qw/CXU7dXB7dvlSZfT/i6/lbb7kXe/prqu4Q9u/bznpjP5ZA6LTaLmVtHBAk5LfGsiY+oDyX7VhAvzd8n49Oos8S03rjNybfWh3wAv9I+uqh/ycAZ9cdOt3knIL8bH54an0nHqXiM5/8ALC088ZB/iSNvzz0RY2Goq2UOfYglfZ7QHsfJIzJf2cfYjPgETv6d+np6oWL90lgYa1dthsPIH5i9Gq7GqG+Ek7qFP7ydG44p8aiGfHYbWxBs9xHn19gME0+s81yP9PGknofLPUslX6/lF6N8TbC5ZZNfDP6f6nY3CIBKmOwVXmYemeitu95oT8tLXrJX16dxgMX/ANTebsO8mFBGVA619jT8XvcV4ZbeGWblO9pTVvqqTPj3tXSm9ma3ERkLPI0NUEYMoOAaWwm1NblvNvaR7e520UdxlsFAJPnkjAZM/wDdxqkWCVf3gA3SxxqqIiqiIihURFAVVVVACqoGAB2A/Xz6zkGrqbSm2SsdmPLwuR4+7WnQrPVnA9HjZW/PqzY11Ctt38HaCOxJFrOTUyfhr97Gsde54/wpaVVAGCXPVyu3H6/KfYVmio7eD/pnm9OPuVNLYFq1bYQxqMqy2IxJ28Ymz1Yoa5rUzwFs8U5/rWo7SJASFWps5Ia6Sr/hdliTGCC3x+j2uu5Dx11+SKC7B/XtRIqgg/Rm0kt0Q/L2+mdEHw6Au6yhfZP3ZdfLNFLGB6s0My278cgB9EX8vj146Dke61sw9aptxyQj4jyhnuRXz6dsgenw6CHbTbJF7nM2xgYAEYAhwsTdh8JT2/HpTYr71JAf3q7WGPr6oa8d9z/7esDknO6QXt4pd3ldRn1GHq1vUj8PX9nRjm5nzCb5cGOxvnUFfwIu3YVyfz6L/wBSuzSHOXtbzWJkk98yQNckP+49FNfJcPl2zDsNleQgkHPu1Iq6KSp+KEf3dN9ZZuxxvgkGjsrcg+HyGVqtCUn8JVIHxz0Tv7E8kZGTBvd9T0etYj5vL+i6Usk4Prhg2evpNK8Neqowsej1Kayl+HlHcvK0rnsfmjr9/wAelWrrru3suSieS2b/AHJGARIWjZvybKf8PVGxq+G3eL8Wcxg8k5RDLrdbBWbxbxpRSIgcFWygQCE4x5DrXcm+5rD7p80qmOcPtII31FOwvcGpr5FerAR6Z8ZZVYeUcy9Rarj+qo6jXwhQlajAkKEqoQPIVHnNL4gAu5Zz8T/2CNHe6qhtqhyRDerRTiNiMGSFnUvBLj0dCrD4HqarHBWWu/m6ajkGvg5FqEdhjNY3MbCjJjt7ollZcAgdXP6PorkFeXyLR8fsRco00pwSofj+7X+rnyz3WPCj0H52Rqq9aC0peQQVfq9HZTDdvc0+4ingV1/wwhRnqXw08N+suRGu218dYt6/5TyixE4yP3lAB+HT+79seQsqZ859Ku3swYHYuEqW3rBQP/DwB8Ovbu8P5DAQce3d0+3BOPgZFjRs9/Xv0A/CopPgROeSQE/n8inuf2dBYft1QlfIwHk30wPf1xNWlyMn49KNZ9vOP1WzgO1a3G4J+Pk4rse/7ev5dbTapWPrBrL9llH7ZqV2E/3sOkjt73kFv3SA0GpiapG/l/B9NSeCV+wPYJ8Ph1Wn0v2y5bJBZKsN1t6K6HXlS2fcbb8sk1ddx6kiKdj+HVTYfeTnuh0kOI5ZtLxqvb5ZtW+b5q0929/RtTrLABP8yJtjGMDAPwq2OM/bSjyPe1QvhyPnP0/Itj7ikMJYqZq1dDUkVh2aGmjgdvI9R168MVeCJQkUMMaRRRIvokccYVEUfAAAf9hzW2VClsa5zmC9VgtwnPY5isRyIcj8umNjiNCs7Ajy1klvVBc+uIdfYr1j2+BQj8und9bbgkfPzGLTWcZyTiSzqJLYOT6iUHpwl2xErZHi9OyyAEYGY6u5oxN/+nv1/Mu0mH/icZkmJ/aZeSsD3/LoGeWnIPiIuMxQZ7/nuZcdulN7TT3ADkiCCpTJGfTyaO2R2/DpGh+2Wt2LIQVO1mmsDI9CyV2qxsc/iCOkHF+CcT0TRqFSbW6HW17IVfRfqlr/AFJA+GXP/prP/9k='
p18
sS'children_node_ids'
p19
(lp20
sS'parent_node_id'
p21
Nsbssb.